
build/output.elf:     file format elf32-littlearm


Disassembly of section .text:

00000000 <vectors>:
       0:	ea001ffe 	b	8000 <reset>
       4:	ea00200d 	b	8040 <undef>
       8:	ea002010 	b	8050 <swi>
       c:	ea002013 	b	8060 <pabt>
      10:	ea002017 	b	8074 <dabt>
      14:	ea00201b 	b	8088 <na>
      18:	ea00201b 	b	808c <irq>
      1c:	ea00201e 	b	809c <fiq>
	...

00008000 <reset>:
    8000:	e3a020d3 	mov	r2, #211	; 0xd3
    8004:	e121f002 	msr	CPSR_c, r2
    8008:	e3a0da07 	mov	sp, #28672	; 0x7000
    800c:	e3a02012 	mov	r2, #18
    8010:	e121f002 	msr	CPSR_c, r2
    8014:	e3a0da06 	mov	sp, #24576	; 0x6000
    8018:	e3a0201f 	mov	r2, #31
    801c:	e121f002 	msr	CPSR_c, r2
    8020:	e3a0da05 	mov	sp, #20480	; 0x5000
    8024:	ee110f50 	mrc	15, 0, r0, cr1, cr0, {2}
    8028:	e3800603 	orr	r0, r0, #3145728	; 0x300000
    802c:	e3800503 	orr	r0, r0, #12582912	; 0xc00000
    8030:	ee010f50 	mcr	15, 0, r0, cr1, cr0, {2}
    8034:	e3a00101 	mov	r0, #1073741824	; 0x40000000
    8038:	eee80a10 	vmsr	fpexc, r0
    803c:	ea000479 	b	9228 <kernel_main>

00008040 <undef>:
    8040:	eaffffee 	b	8000 <reset>
    8044:	e92d5fff 	push	{r0, r1, r2, r3, r4, r5, r6, r7, r8, r9, sl, fp, ip, lr}
    8048:	e1a00000 	nop			; (mov r0, r0)
    804c:	e8fd9fff 	ldm	sp!, {r0, r1, r2, r3, r4, r5, r6, r7, r8, r9, sl, fp, ip, pc}^

00008050 <swi>:
    8050:	eaffffea 	b	8000 <reset>
    8054:	e92d5fff 	push	{r0, r1, r2, r3, r4, r5, r6, r7, r8, r9, sl, fp, ip, lr}
    8058:	e1a00000 	nop			; (mov r0, r0)
    805c:	e8fd9fff 	ldm	sp!, {r0, r1, r2, r3, r4, r5, r6, r7, r8, r9, sl, fp, ip, pc}^

00008060 <pabt>:
    8060:	eaffffe6 	b	8000 <reset>
    8064:	e24ee004 	sub	lr, lr, #4
    8068:	e92d5fff 	push	{r0, r1, r2, r3, r4, r5, r6, r7, r8, r9, sl, fp, ip, lr}
    806c:	e1a00000 	nop			; (mov r0, r0)
    8070:	e8fd9fff 	ldm	sp!, {r0, r1, r2, r3, r4, r5, r6, r7, r8, r9, sl, fp, ip, pc}^

00008074 <dabt>:
    8074:	eaffffe1 	b	8000 <reset>
    8078:	e24ee008 	sub	lr, lr, #8
    807c:	e92d5fff 	push	{r0, r1, r2, r3, r4, r5, r6, r7, r8, r9, sl, fp, ip, lr}
    8080:	e1a00000 	nop			; (mov r0, r0)
    8084:	e8fd9fff 	ldm	sp!, {r0, r1, r2, r3, r4, r5, r6, r7, r8, r9, sl, fp, ip, pc}^

00008088 <na>:
    8088:	eaffffdc 	b	8000 <reset>

0000808c <irq>:
    808c:	e24ee004 	sub	lr, lr, #4
    8090:	e92d5fff 	push	{r0, r1, r2, r3, r4, r5, r6, r7, r8, r9, sl, fp, ip, lr}
    8094:	eb00046c 	bl	924c <irq_handler>
    8098:	e8fd9fff 	ldm	sp!, {r0, r1, r2, r3, r4, r5, r6, r7, r8, r9, sl, fp, ip, pc}^

0000809c <fiq>:
    809c:	eaffffd7 	b	8000 <reset>
    80a0:	e24ee004 	sub	lr, lr, #4
    80a4:	e92d40ff 	push	{r0, r1, r2, r3, r4, r5, r6, r7, lr}
    80a8:	e1a00000 	nop			; (mov r0, r0)
    80ac:	e8fd80ff 	ldm	sp!, {r0, r1, r2, r3, r4, r5, r6, r7, pc}^

000080b0 <reboot>:
    80b0:	eaffffd2 	b	8000 <reset>

000080b4 <enable_arm_irq>:
    80b4:	e10f1000 	mrs	r1, CPSR
    80b8:	e3c11080 	bic	r1, r1, #128	; 0x80
    80bc:	e121f001 	msr	CPSR_c, r1
    80c0:	e1a0f00e 	mov	pc, lr

000080c4 <disable_arm_irq>:
    80c4:	e10f1000 	mrs	r1, CPSR
    80c8:	e3811080 	orr	r1, r1, #128	; 0x80
    80cc:	e121f001 	msr	CPSR_c, r1
    80d0:	e1a0f00e 	mov	pc, lr

000080d4 <enable_arm_fiq>:
    80d4:	e10f1000 	mrs	r1, CPSR
    80d8:	e3c11040 	bic	r1, r1, #64	; 0x40
    80dc:	e121f001 	msr	CPSR_c, r1
    80e0:	e1a0f00e 	mov	pc, lr

000080e4 <disable_arm_fiq>:
    80e4:	e10f1000 	mrs	r1, CPSR
    80e8:	e3811040 	orr	r1, r1, #64	; 0x40
    80ec:	e121f001 	msr	CPSR_c, r1
    80f0:	e1a0f00e 	mov	pc, lr

000080f4 <vfp11_add>:
    80f4:	ec410a30 	vmov	s1, s2, r0, r1
    80f8:	ee311a20 	vadd.f32	s2, s2, s1
    80fc:	ee110a10 	vmov	r0, s2
    8100:	e1a0f00e 	mov	pc, lr

00008104 <add>:
    8104:	e0800001 	add	r0, r0, r1
    8108:	e1a0f00e 	mov	pc, lr

0000810c <subtract>:
    810c:	e0400001 	sub	r0, r0, r1
    8110:	e1a0f00e 	mov	pc, lr

00008114 <multiply>:
    8114:	e0000190 	mul	r0, r0, r1
    8118:	e1a0f00e 	mov	pc, lr

0000811c <divide>:
    811c:	e5924000 	ldr	r4, [r2]
    8120:	e5935000 	ldr	r5, [r3]
    8124:	e1a06000 	mov	r6, r0

00008128 <compairson>:
    8128:	e3500000 	cmp	r0, #0
    812c:	ca000004 	bgt	8144 <reduce>
    8130:	0a000006 	beq	8150 <return_zero>
    8134:	e0803001 	add	r3, r0, r1

00008138 <return_values>:
    8138:	e5824000 	str	r4, [r2]
    813c:	e5835000 	str	r5, [r3]
    8140:	e1a0f00e 	mov	pc, lr

00008144 <reduce>:
    8144:	e0400001 	sub	r0, r0, r1
    8148:	e2844001 	add	r4, r4, #1
    814c:	eafffff5 	b	8128 <compairson>

00008150 <return_zero>:
    8150:	e3a04000 	mov	r4, #0
    8154:	e3a05000 	mov	r5, #0
    8158:	eafffff6 	b	8138 <return_values>

0000815c <divide_2>:
    815c:	e52db004 	push	{fp}		; (str fp, [sp, #-4]!)
    8160:	e28db000 	add	fp, sp, #0
    8164:	e24dd024 	sub	sp, sp, #36	; 0x24
    8168:	e50b0018 	str	r0, [fp, #-24]	; 0xffffffe8
    816c:	e50b101c 	str	r1, [fp, #-28]	; 0xffffffe4
    8170:	e50b2020 	str	r2, [fp, #-32]	; 0xffffffe0
    8174:	e50b3024 	str	r3, [fp, #-36]	; 0xffffffdc
    8178:	e51b3020 	ldr	r3, [fp, #-32]	; 0xffffffe0
    817c:	e5933000 	ldr	r3, [r3]
    8180:	e50b3008 	str	r3, [fp, #-8]
    8184:	e51b3024 	ldr	r3, [fp, #-36]	; 0xffffffdc
    8188:	e5933000 	ldr	r3, [r3]
    818c:	e50b300c 	str	r3, [fp, #-12]
    8190:	e3a03000 	mov	r3, #0
    8194:	e50b3010 	str	r3, [fp, #-16]
    8198:	e3a03000 	mov	r3, #0
    819c:	e50b3014 	str	r3, [fp, #-20]	; 0xffffffec
    81a0:	e3a03000 	mov	r3, #0
    81a4:	e50b3008 	str	r3, [fp, #-8]
    81a8:	e3a03000 	mov	r3, #0
    81ac:	e50b300c 	str	r3, [fp, #-12]
    81b0:	e51b3018 	ldr	r3, [fp, #-24]	; 0xffffffe8
    81b4:	e3530000 	cmp	r3, #0
    81b8:	aa00000a 	bge	81e8 <divide_2+0x8c>
    81bc:	e51b301c 	ldr	r3, [fp, #-28]	; 0xffffffe4
    81c0:	e3530000 	cmp	r3, #0
    81c4:	da000007 	ble	81e8 <divide_2+0x8c>
    81c8:	e51b3018 	ldr	r3, [fp, #-24]	; 0xffffffe8
    81cc:	e2633000 	rsb	r3, r3, #0
    81d0:	e50b3018 	str	r3, [fp, #-24]	; 0xffffffe8
    81d4:	e3a03001 	mov	r3, #1
    81d8:	e50b3010 	str	r3, [fp, #-16]
    81dc:	e3a03001 	mov	r3, #1
    81e0:	e50b3014 	str	r3, [fp, #-20]	; 0xffffffec
    81e4:	ea000019 	b	8250 <divide_2+0xf4>
    81e8:	e51b3018 	ldr	r3, [fp, #-24]	; 0xffffffe8
    81ec:	e3530000 	cmp	r3, #0
    81f0:	da000008 	ble	8218 <divide_2+0xbc>
    81f4:	e51b301c 	ldr	r3, [fp, #-28]	; 0xffffffe4
    81f8:	e3530000 	cmp	r3, #0
    81fc:	aa000005 	bge	8218 <divide_2+0xbc>
    8200:	e51b301c 	ldr	r3, [fp, #-28]	; 0xffffffe4
    8204:	e2633000 	rsb	r3, r3, #0
    8208:	e50b301c 	str	r3, [fp, #-28]	; 0xffffffe4
    820c:	e3a03001 	mov	r3, #1
    8210:	e50b3010 	str	r3, [fp, #-16]
    8214:	ea00000d 	b	8250 <divide_2+0xf4>
    8218:	e51b3018 	ldr	r3, [fp, #-24]	; 0xffffffe8
    821c:	e3530000 	cmp	r3, #0
    8220:	aa00000a 	bge	8250 <divide_2+0xf4>
    8224:	e51b301c 	ldr	r3, [fp, #-28]	; 0xffffffe4
    8228:	e3530000 	cmp	r3, #0
    822c:	aa000007 	bge	8250 <divide_2+0xf4>
    8230:	e51b3018 	ldr	r3, [fp, #-24]	; 0xffffffe8
    8234:	e2633000 	rsb	r3, r3, #0
    8238:	e50b3018 	str	r3, [fp, #-24]	; 0xffffffe8
    823c:	e51b301c 	ldr	r3, [fp, #-28]	; 0xffffffe4
    8240:	e2633000 	rsb	r3, r3, #0
    8244:	e50b301c 	str	r3, [fp, #-28]	; 0xffffffe4
    8248:	e3a03001 	mov	r3, #1
    824c:	e50b3014 	str	r3, [fp, #-20]	; 0xffffffec
    8250:	e51b3018 	ldr	r3, [fp, #-24]	; 0xffffffe8
    8254:	e3530000 	cmp	r3, #0
    8258:	da000008 	ble	8280 <divide_2+0x124>
    825c:	e1a00000 	nop			; (mov r0, r0)
    8260:	e51b2018 	ldr	r2, [fp, #-24]	; 0xffffffe8
    8264:	e51b301c 	ldr	r3, [fp, #-28]	; 0xffffffe4
    8268:	e0633002 	rsb	r3, r3, r2
    826c:	e50b3018 	str	r3, [fp, #-24]	; 0xffffffe8
    8270:	e51b3018 	ldr	r3, [fp, #-24]	; 0xffffffe8
    8274:	e3530000 	cmp	r3, #0
    8278:	ba000008 	blt	82a0 <divide_2+0x144>
    827c:	ea000004 	b	8294 <divide_2+0x138>
    8280:	e1a00000 	nop			; (mov r0, r0)
    8284:	e51b3018 	ldr	r3, [fp, #-24]	; 0xffffffe8
    8288:	e3530000 	cmp	r3, #0
    828c:	0a000008 	beq	82b4 <divide_2+0x158>
    8290:	ea000003 	b	82a4 <divide_2+0x148>
    8294:	e51b3008 	ldr	r3, [fp, #-8]
    8298:	e2833001 	add	r3, r3, #1
    829c:	e50b3008 	str	r3, [fp, #-8]
    82a0:	eaffffea 	b	8250 <divide_2+0xf4>
    82a4:	e51b2018 	ldr	r2, [fp, #-24]	; 0xffffffe8
    82a8:	e51b301c 	ldr	r3, [fp, #-28]	; 0xffffffe4
    82ac:	e0823003 	add	r3, r2, r3
    82b0:	e50b300c 	str	r3, [fp, #-12]
    82b4:	e51b3010 	ldr	r3, [fp, #-16]
    82b8:	e3530000 	cmp	r3, #0
    82bc:	0a000002 	beq	82cc <divide_2+0x170>
    82c0:	e51b3008 	ldr	r3, [fp, #-8]
    82c4:	e2633000 	rsb	r3, r3, #0
    82c8:	e50b3008 	str	r3, [fp, #-8]
    82cc:	e51b3014 	ldr	r3, [fp, #-20]	; 0xffffffec
    82d0:	e3530000 	cmp	r3, #0
    82d4:	0a000002 	beq	82e4 <divide_2+0x188>
    82d8:	e51b300c 	ldr	r3, [fp, #-12]
    82dc:	e2633000 	rsb	r3, r3, #0
    82e0:	e50b300c 	str	r3, [fp, #-12]
    82e4:	e51b3020 	ldr	r3, [fp, #-32]	; 0xffffffe0
    82e8:	e51b2008 	ldr	r2, [fp, #-8]
    82ec:	e5832000 	str	r2, [r3]
    82f0:	e51b3024 	ldr	r3, [fp, #-36]	; 0xffffffdc
    82f4:	e51b200c 	ldr	r2, [fp, #-12]
    82f8:	e5832000 	str	r2, [r3]
    82fc:	e24bd000 	sub	sp, fp, #0
    8300:	e49db004 	pop	{fp}		; (ldr fp, [sp], #4)
    8304:	e12fff1e 	bx	lr

00008308 <mmio_write>:
    8308:	e52db004 	push	{fp}		; (str fp, [sp, #-4]!)
    830c:	e28db000 	add	fp, sp, #0
    8310:	e24dd014 	sub	sp, sp, #20
    8314:	e50b0010 	str	r0, [fp, #-16]
    8318:	e50b1014 	str	r1, [fp, #-20]	; 0xffffffec
    831c:	e51b3010 	ldr	r3, [fp, #-16]
    8320:	e50b3008 	str	r3, [fp, #-8]
    8324:	e51b3008 	ldr	r3, [fp, #-8]
    8328:	e51b2014 	ldr	r2, [fp, #-20]	; 0xffffffec
    832c:	e5832000 	str	r2, [r3]
    8330:	e24bd000 	sub	sp, fp, #0
    8334:	e49db004 	pop	{fp}		; (ldr fp, [sp], #4)
    8338:	e12fff1e 	bx	lr

0000833c <mmio_read>:
    833c:	e52db004 	push	{fp}		; (str fp, [sp, #-4]!)
    8340:	e28db000 	add	fp, sp, #0
    8344:	e24dd014 	sub	sp, sp, #20
    8348:	e50b0010 	str	r0, [fp, #-16]
    834c:	e51b3010 	ldr	r3, [fp, #-16]
    8350:	e50b3008 	str	r3, [fp, #-8]
    8354:	e51b3008 	ldr	r3, [fp, #-8]
    8358:	e5933000 	ldr	r3, [r3]
    835c:	e50b300c 	str	r3, [fp, #-12]
    8360:	e51b300c 	ldr	r3, [fp, #-12]
    8364:	e1a00003 	mov	r0, r3
    8368:	e24bd000 	sub	sp, fp, #0
    836c:	e49db004 	pop	{fp}		; (ldr fp, [sp], #4)
    8370:	e12fff1e 	bx	lr

00008374 <delay>:
    8374:	e52db004 	push	{fp}		; (str fp, [sp, #-4]!)
    8378:	e28db000 	add	fp, sp, #0
    837c:	e24dd00c 	sub	sp, sp, #12
    8380:	e50b0008 	str	r0, [fp, #-8]
    8384:	e51b3008 	ldr	r3, [fp, #-8]

00008388 <__delay59>:
    8388:	e2533001 	subs	r3, r3, #1
    838c:	1afffffd 	bne	8388 <__delay59>
    8390:	e24bd000 	sub	sp, fp, #0
    8394:	e49db004 	pop	{fp}		; (ldr fp, [sp], #4)
    8398:	e12fff1e 	bx	lr

0000839c <uart_init>:
    839c:	e92d4800 	push	{fp, lr}
    83a0:	e28db004 	add	fp, sp, #4
    83a4:	e59f0084 	ldr	r0, [pc, #132]	; 8430 <uart_init+0x94>
    83a8:	e3a01000 	mov	r1, #0
    83ac:	ebffffd5 	bl	8308 <mmio_write>
    83b0:	e59f007c 	ldr	r0, [pc, #124]	; 8434 <uart_init+0x98>
    83b4:	e3a01000 	mov	r1, #0
    83b8:	ebffffd2 	bl	8308 <mmio_write>
    83bc:	e3a00096 	mov	r0, #150	; 0x96
    83c0:	ebffffeb 	bl	8374 <delay>
    83c4:	e59f006c 	ldr	r0, [pc, #108]	; 8438 <uart_init+0x9c>
    83c8:	e3a01903 	mov	r1, #49152	; 0xc000
    83cc:	ebffffcd 	bl	8308 <mmio_write>
    83d0:	e3a00096 	mov	r0, #150	; 0x96
    83d4:	ebffffe6 	bl	8374 <delay>
    83d8:	e59f0058 	ldr	r0, [pc, #88]	; 8438 <uart_init+0x9c>
    83dc:	e3a01000 	mov	r1, #0
    83e0:	ebffffc8 	bl	8308 <mmio_write>
    83e4:	e59f0050 	ldr	r0, [pc, #80]	; 843c <uart_init+0xa0>
    83e8:	e59f1050 	ldr	r1, [pc, #80]	; 8440 <uart_init+0xa4>
    83ec:	ebffffc5 	bl	8308 <mmio_write>
    83f0:	e59f004c 	ldr	r0, [pc, #76]	; 8444 <uart_init+0xa8>
    83f4:	e3a01001 	mov	r1, #1
    83f8:	ebffffc2 	bl	8308 <mmio_write>
    83fc:	e59f0044 	ldr	r0, [pc, #68]	; 8448 <uart_init+0xac>
    8400:	e3a01028 	mov	r1, #40	; 0x28
    8404:	ebffffbf 	bl	8308 <mmio_write>
    8408:	e59f003c 	ldr	r0, [pc, #60]	; 844c <uart_init+0xb0>
    840c:	e3a01060 	mov	r1, #96	; 0x60
    8410:	ebffffbc 	bl	8308 <mmio_write>
    8414:	e59f0034 	ldr	r0, [pc, #52]	; 8450 <uart_init+0xb4>
    8418:	e3a01e11 	mov	r1, #272	; 0x110
    841c:	ebffffb9 	bl	8308 <mmio_write>
    8420:	e59f0008 	ldr	r0, [pc, #8]	; 8430 <uart_init+0x94>
    8424:	e59f1028 	ldr	r1, [pc, #40]	; 8454 <uart_init+0xb8>
    8428:	ebffffb6 	bl	8308 <mmio_write>
    842c:	e8bd8800 	pop	{fp, pc}
    8430:	20201030 	.word	0x20201030
    8434:	20200094 	.word	0x20200094
    8438:	20200098 	.word	0x20200098
    843c:	20201044 	.word	0x20201044
    8440:	000007ff 	.word	0x000007ff
    8444:	20201024 	.word	0x20201024
    8448:	20201028 	.word	0x20201028
    844c:	2020102c 	.word	0x2020102c
    8450:	20201038 	.word	0x20201038
    8454:	00000301 	.word	0x00000301

00008458 <uart_putc>:
    8458:	e92d4800 	push	{fp, lr}
    845c:	e28db004 	add	fp, sp, #4
    8460:	e24dd008 	sub	sp, sp, #8
    8464:	e1a03000 	mov	r3, r0
    8468:	e54b3005 	strb	r3, [fp, #-5]
    846c:	e59f0030 	ldr	r0, [pc, #48]	; 84a4 <uart_putc+0x4c>
    8470:	ebffffb1 	bl	833c <mmio_read>
    8474:	e1a03000 	mov	r3, r0
    8478:	e2033008 	and	r3, r3, #8
    847c:	e3530000 	cmp	r3, #0
    8480:	1a000000 	bne	8488 <uart_putc+0x30>
    8484:	ea000000 	b	848c <uart_putc+0x34>
    8488:	eafffff7 	b	846c <uart_putc+0x14>
    848c:	e55b3005 	ldrb	r3, [fp, #-5]
    8490:	e59f0010 	ldr	r0, [pc, #16]	; 84a8 <uart_putc+0x50>
    8494:	e1a01003 	mov	r1, r3
    8498:	ebffff9a 	bl	8308 <mmio_write>
    849c:	e24bd004 	sub	sp, fp, #4
    84a0:	e8bd8800 	pop	{fp, pc}
    84a4:	20201018 	.word	0x20201018
    84a8:	20201000 	.word	0x20201000

000084ac <uart_readc>:
    84ac:	e92d4800 	push	{fp, lr}
    84b0:	e28db004 	add	fp, sp, #4
    84b4:	e59f0030 	ldr	r0, [pc, #48]	; 84ec <uart_readc+0x40>
    84b8:	ebffff9f 	bl	833c <mmio_read>
    84bc:	e1a03000 	mov	r3, r0
    84c0:	e2033010 	and	r3, r3, #16
    84c4:	e3530000 	cmp	r3, #0
    84c8:	1a000000 	bne	84d0 <uart_readc+0x24>
    84cc:	ea000000 	b	84d4 <uart_readc+0x28>
    84d0:	eafffff7 	b	84b4 <uart_readc+0x8>
    84d4:	e59f0014 	ldr	r0, [pc, #20]	; 84f0 <uart_readc+0x44>
    84d8:	ebffff97 	bl	833c <mmio_read>
    84dc:	e1a03000 	mov	r3, r0
    84e0:	e6ef3073 	uxtb	r3, r3
    84e4:	e1a00003 	mov	r0, r3
    84e8:	e8bd8800 	pop	{fp, pc}
    84ec:	20201018 	.word	0x20201018
    84f0:	20201000 	.word	0x20201000

000084f4 <uart_puts>:
    84f4:	e92d4800 	push	{fp, lr}
    84f8:	e28db004 	add	fp, sp, #4
    84fc:	e24dd008 	sub	sp, sp, #8
    8500:	e50b0008 	str	r0, [fp, #-8]
    8504:	ea000005 	b	8520 <uart_puts+0x2c>
    8508:	e51b3008 	ldr	r3, [fp, #-8]
    850c:	e2832001 	add	r2, r3, #1
    8510:	e50b2008 	str	r2, [fp, #-8]
    8514:	e5d33000 	ldrb	r3, [r3]
    8518:	e1a00003 	mov	r0, r3
    851c:	ebffffcd 	bl	8458 <uart_putc>
    8520:	e51b3008 	ldr	r3, [fp, #-8]
    8524:	e5d33000 	ldrb	r3, [r3]
    8528:	e3530000 	cmp	r3, #0
    852c:	1afffff5 	bne	8508 <uart_puts+0x14>
    8530:	e24bd004 	sub	sp, fp, #4
    8534:	e8bd8800 	pop	{fp, pc}

00008538 <bcm2835_spi_begin>:
    8538:	e92d4800 	push	{fp, lr}
    853c:	e28db004 	add	fp, sp, #4
    8540:	e24dd008 	sub	sp, sp, #8
    8544:	e3a00007 	mov	r0, #7
    8548:	e3a01004 	mov	r1, #4
    854c:	eb0000e3 	bl	88e0 <bcm2835_gpio_fsel>
    8550:	e3a00008 	mov	r0, #8
    8554:	e3a01004 	mov	r1, #4
    8558:	eb0000e0 	bl	88e0 <bcm2835_gpio_fsel>
    855c:	e3a00009 	mov	r0, #9
    8560:	e3a01004 	mov	r1, #4
    8564:	eb0000dd 	bl	88e0 <bcm2835_gpio_fsel>
    8568:	e3a0000a 	mov	r0, #10
    856c:	e3a01004 	mov	r1, #4
    8570:	eb0000da 	bl	88e0 <bcm2835_gpio_fsel>
    8574:	e3a0000b 	mov	r0, #11
    8578:	e3a01004 	mov	r1, #4
    857c:	eb0000d7 	bl	88e0 <bcm2835_gpio_fsel>
    8580:	e59f3024 	ldr	r3, [pc, #36]	; 85ac <bcm2835_spi_begin+0x74>
    8584:	e5933000 	ldr	r3, [r3]
    8588:	e50b3008 	str	r3, [fp, #-8]
    858c:	e51b0008 	ldr	r0, [fp, #-8]
    8590:	e3a01000 	mov	r1, #0
    8594:	eb000137 	bl	8a78 <bcm2835_peri_write>
    8598:	e51b0008 	ldr	r0, [fp, #-8]
    859c:	e3a01030 	mov	r1, #48	; 0x30
    85a0:	eb000142 	bl	8ab0 <bcm2835_peri_write_nb>
    85a4:	e24bd004 	sub	sp, fp, #4
    85a8:	e8bd8800 	pop	{fp, pc}
    85ac:	0000b020 	.word	0x0000b020

000085b0 <bcm2835_spi_end>:
    85b0:	e92d4800 	push	{fp, lr}
    85b4:	e28db004 	add	fp, sp, #4
    85b8:	e3a00007 	mov	r0, #7
    85bc:	e3a01000 	mov	r1, #0
    85c0:	eb0000c6 	bl	88e0 <bcm2835_gpio_fsel>
    85c4:	e3a00008 	mov	r0, #8
    85c8:	e3a01000 	mov	r1, #0
    85cc:	eb0000c3 	bl	88e0 <bcm2835_gpio_fsel>
    85d0:	e3a00009 	mov	r0, #9
    85d4:	e3a01000 	mov	r1, #0
    85d8:	eb0000c0 	bl	88e0 <bcm2835_gpio_fsel>
    85dc:	e3a0000a 	mov	r0, #10
    85e0:	e3a01000 	mov	r1, #0
    85e4:	eb0000bd 	bl	88e0 <bcm2835_gpio_fsel>
    85e8:	e3a0000b 	mov	r0, #11
    85ec:	e3a01000 	mov	r1, #0
    85f0:	eb0000ba 	bl	88e0 <bcm2835_gpio_fsel>
    85f4:	e8bd8800 	pop	{fp, pc}

000085f8 <bcm2835_spi_setBitOrder>:
    85f8:	e52db004 	push	{fp}		; (str fp, [sp, #-4]!)
    85fc:	e28db000 	add	fp, sp, #0
    8600:	e24dd00c 	sub	sp, sp, #12
    8604:	e1a03000 	mov	r3, r0
    8608:	e54b3005 	strb	r3, [fp, #-5]
    860c:	e24bd000 	sub	sp, fp, #0
    8610:	e49db004 	pop	{fp}		; (ldr fp, [sp], #4)
    8614:	e12fff1e 	bx	lr

00008618 <bcm2835_spi_setClockDivider>:
    8618:	e92d4800 	push	{fp, lr}
    861c:	e28db004 	add	fp, sp, #4
    8620:	e24dd010 	sub	sp, sp, #16
    8624:	e1a03000 	mov	r3, r0
    8628:	e14b30be 	strh	r3, [fp, #-14]
    862c:	e59f3020 	ldr	r3, [pc, #32]	; 8654 <bcm2835_spi_setClockDivider+0x3c>
    8630:	e5933000 	ldr	r3, [r3]
    8634:	e2833008 	add	r3, r3, #8
    8638:	e50b3008 	str	r3, [fp, #-8]
    863c:	e15b30be 	ldrh	r3, [fp, #-14]
    8640:	e51b0008 	ldr	r0, [fp, #-8]
    8644:	e1a01003 	mov	r1, r3
    8648:	eb00010a 	bl	8a78 <bcm2835_peri_write>
    864c:	e24bd004 	sub	sp, fp, #4
    8650:	e8bd8800 	pop	{fp, pc}
    8654:	0000b020 	.word	0x0000b020

00008658 <bcm2835_spi_setDataMode>:
    8658:	e92d4800 	push	{fp, lr}
    865c:	e28db004 	add	fp, sp, #4
    8660:	e24dd010 	sub	sp, sp, #16
    8664:	e1a03000 	mov	r3, r0
    8668:	e54b300d 	strb	r3, [fp, #-13]
    866c:	e59f3024 	ldr	r3, [pc, #36]	; 8698 <bcm2835_spi_setDataMode+0x40>
    8670:	e5933000 	ldr	r3, [r3]
    8674:	e50b3008 	str	r3, [fp, #-8]
    8678:	e55b300d 	ldrb	r3, [fp, #-13]
    867c:	e1a03103 	lsl	r3, r3, #2
    8680:	e51b0008 	ldr	r0, [fp, #-8]
    8684:	e1a01003 	mov	r1, r3
    8688:	e3a0200c 	mov	r2, #12
    868c:	eb000112 	bl	8adc <bcm2835_peri_set_bits>
    8690:	e24bd004 	sub	sp, fp, #4
    8694:	e8bd8800 	pop	{fp, pc}
    8698:	0000b020 	.word	0x0000b020

0000869c <bcm2835_st_read>:
    869c:	e92d4830 	push	{r4, r5, fp, lr}
    86a0:	e28db00c 	add	fp, sp, #12
    86a4:	e24dd010 	sub	sp, sp, #16
    86a8:	e59f3078 	ldr	r3, [pc, #120]	; 8728 <bcm2835_st_read+0x8c>
    86ac:	e5933000 	ldr	r3, [r3]
    86b0:	e2833008 	add	r3, r3, #8
    86b4:	e50b3010 	str	r3, [fp, #-16]
    86b8:	e51b0010 	ldr	r0, [fp, #-16]
    86bc:	eb0000b7 	bl	89a0 <bcm2835_peri_read>
    86c0:	e1a03000 	mov	r3, r0
    86c4:	e1a02003 	mov	r2, r3
    86c8:	e3a03000 	mov	r3, #0
    86cc:	e14b21fc 	strd	r2, [fp, #-28]	; 0xffffffe4
    86d0:	e14b21dc 	ldrd	r2, [fp, #-28]	; 0xffffffe4
    86d4:	e1a05002 	mov	r5, r2
    86d8:	e3a04000 	mov	r4, #0
    86dc:	e14b41fc 	strd	r4, [fp, #-28]	; 0xffffffe4
    86e0:	e59f3040 	ldr	r3, [pc, #64]	; 8728 <bcm2835_st_read+0x8c>
    86e4:	e5933000 	ldr	r3, [r3]
    86e8:	e2833004 	add	r3, r3, #4
    86ec:	e50b3010 	str	r3, [fp, #-16]
    86f0:	e51b0010 	ldr	r0, [fp, #-16]
    86f4:	eb0000a9 	bl	89a0 <bcm2835_peri_read>
    86f8:	e1a03000 	mov	r3, r0
    86fc:	e1a02003 	mov	r2, r3
    8700:	e3a03000 	mov	r3, #0
    8704:	e14b01dc 	ldrd	r0, [fp, #-28]	; 0xffffffe4
    8708:	e0922000 	adds	r2, r2, r0
    870c:	e0a33001 	adc	r3, r3, r1
    8710:	e14b21fc 	strd	r2, [fp, #-28]	; 0xffffffe4
    8714:	e14b21dc 	ldrd	r2, [fp, #-28]	; 0xffffffe4
    8718:	e1a00002 	mov	r0, r2
    871c:	e1a01003 	mov	r1, r3
    8720:	e24bd00c 	sub	sp, fp, #12
    8724:	e8bd8830 	pop	{r4, r5, fp, pc}
    8728:	0000b02c 	.word	0x0000b02c

0000872c <bcm2835_spi_transfernb>:
    872c:	e92d4810 	push	{r4, fp, lr}
    8730:	e28db008 	add	fp, sp, #8
    8734:	e24dd024 	sub	sp, sp, #36	; 0x24
    8738:	e50b0020 	str	r0, [fp, #-32]	; 0xffffffe0
    873c:	e50b1024 	str	r1, [fp, #-36]	; 0xffffffdc
    8740:	e50b2028 	str	r2, [fp, #-40]	; 0xffffffd8
    8744:	e59f3128 	ldr	r3, [pc, #296]	; 8874 <bcm2835_spi_transfernb+0x148>
    8748:	e5933000 	ldr	r3, [r3]
    874c:	e50b3014 	str	r3, [fp, #-20]	; 0xffffffec
    8750:	e59f311c 	ldr	r3, [pc, #284]	; 8874 <bcm2835_spi_transfernb+0x148>
    8754:	e5933000 	ldr	r3, [r3]
    8758:	e2833004 	add	r3, r3, #4
    875c:	e50b3018 	str	r3, [fp, #-24]	; 0xffffffe8
    8760:	e51b0014 	ldr	r0, [fp, #-20]	; 0xffffffec
    8764:	e3a01030 	mov	r1, #48	; 0x30
    8768:	e3a02030 	mov	r2, #48	; 0x30
    876c:	eb0000da 	bl	8adc <bcm2835_peri_set_bits>
    8770:	e51b0014 	ldr	r0, [fp, #-20]	; 0xffffffec
    8774:	e3a01080 	mov	r1, #128	; 0x80
    8778:	e3a02080 	mov	r2, #128	; 0x80
    877c:	eb0000d6 	bl	8adc <bcm2835_peri_set_bits>
    8780:	e3a03000 	mov	r3, #0
    8784:	e50b3010 	str	r3, [fp, #-16]
    8788:	ea000025 	b	8824 <bcm2835_spi_transfernb+0xf8>
    878c:	ea000002 	b	879c <bcm2835_spi_transfernb+0x70>
    8790:	e3a0000a 	mov	r0, #10
    8794:	e3a01000 	mov	r1, #0
    8798:	eb0000a1 	bl	8a24 <bcm2835_delayMicroseconds>
    879c:	e51b0014 	ldr	r0, [fp, #-20]	; 0xffffffec
    87a0:	eb00007e 	bl	89a0 <bcm2835_peri_read>
    87a4:	e1a03000 	mov	r3, r0
    87a8:	e2033701 	and	r3, r3, #262144	; 0x40000
    87ac:	e3530000 	cmp	r3, #0
    87b0:	0afffff6 	beq	8790 <bcm2835_spi_transfernb+0x64>
    87b4:	e51b2020 	ldr	r2, [fp, #-32]	; 0xffffffe0
    87b8:	e51b3010 	ldr	r3, [fp, #-16]
    87bc:	e0823003 	add	r3, r2, r3
    87c0:	e5d33000 	ldrb	r3, [r3]
    87c4:	e51b0018 	ldr	r0, [fp, #-24]	; 0xffffffe8
    87c8:	e1a01003 	mov	r1, r3
    87cc:	eb0000b7 	bl	8ab0 <bcm2835_peri_write_nb>
    87d0:	ea000002 	b	87e0 <bcm2835_spi_transfernb+0xb4>
    87d4:	e3a0000a 	mov	r0, #10
    87d8:	e3a01000 	mov	r1, #0
    87dc:	eb000090 	bl	8a24 <bcm2835_delayMicroseconds>
    87e0:	e51b0014 	ldr	r0, [fp, #-20]	; 0xffffffec
    87e4:	eb00006d 	bl	89a0 <bcm2835_peri_read>
    87e8:	e1a03000 	mov	r3, r0
    87ec:	e2033802 	and	r3, r3, #131072	; 0x20000
    87f0:	e3530000 	cmp	r3, #0
    87f4:	0afffff6 	beq	87d4 <bcm2835_spi_transfernb+0xa8>
    87f8:	e51b2024 	ldr	r2, [fp, #-36]	; 0xffffffdc
    87fc:	e51b3010 	ldr	r3, [fp, #-16]
    8800:	e0824003 	add	r4, r2, r3
    8804:	e51b0018 	ldr	r0, [fp, #-24]	; 0xffffffe8
    8808:	eb000090 	bl	8a50 <bcm2835_peri_read_nb>
    880c:	e1a03000 	mov	r3, r0
    8810:	e6ef3073 	uxtb	r3, r3
    8814:	e5c43000 	strb	r3, [r4]
    8818:	e51b3010 	ldr	r3, [fp, #-16]
    881c:	e2833001 	add	r3, r3, #1
    8820:	e50b3010 	str	r3, [fp, #-16]
    8824:	e51b2010 	ldr	r2, [fp, #-16]
    8828:	e51b3028 	ldr	r3, [fp, #-40]	; 0xffffffd8
    882c:	e1520003 	cmp	r2, r3
    8830:	3affffd5 	bcc	878c <bcm2835_spi_transfernb+0x60>
    8834:	ea000002 	b	8844 <bcm2835_spi_transfernb+0x118>
    8838:	e3a0000a 	mov	r0, #10
    883c:	e3a01000 	mov	r1, #0
    8840:	eb000077 	bl	8a24 <bcm2835_delayMicroseconds>
    8844:	e51b0014 	ldr	r0, [fp, #-20]	; 0xffffffec
    8848:	eb000080 	bl	8a50 <bcm2835_peri_read_nb>
    884c:	e1a03000 	mov	r3, r0
    8850:	e2033801 	and	r3, r3, #65536	; 0x10000
    8854:	e3530000 	cmp	r3, #0
    8858:	0afffff6 	beq	8838 <bcm2835_spi_transfernb+0x10c>
    885c:	e51b0014 	ldr	r0, [fp, #-20]	; 0xffffffec
    8860:	e3a01000 	mov	r1, #0
    8864:	e3a02080 	mov	r2, #128	; 0x80
    8868:	eb00009b 	bl	8adc <bcm2835_peri_set_bits>
    886c:	e24bd008 	sub	sp, fp, #8
    8870:	e8bd8810 	pop	{r4, fp, pc}
    8874:	0000b020 	.word	0x0000b020

00008878 <bcm2835_gpio_set>:
    8878:	e92d4800 	push	{fp, lr}
    887c:	e28db004 	add	fp, sp, #4
    8880:	e24dd010 	sub	sp, sp, #16
    8884:	e1a03000 	mov	r3, r0
    8888:	e54b300d 	strb	r3, [fp, #-13]
    888c:	e59f3048 	ldr	r3, [pc, #72]	; 88dc <bcm2835_gpio_set+0x64>
    8890:	e5932000 	ldr	r2, [r3]
    8894:	e55b300d 	ldrb	r3, [fp, #-13]
    8898:	e1a032a3 	lsr	r3, r3, #5
    889c:	e6ef3073 	uxtb	r3, r3
    88a0:	e2833007 	add	r3, r3, #7
    88a4:	e1a03103 	lsl	r3, r3, #2
    88a8:	e0823003 	add	r3, r2, r3
    88ac:	e50b3008 	str	r3, [fp, #-8]
    88b0:	e55b300d 	ldrb	r3, [fp, #-13]
    88b4:	e203301f 	and	r3, r3, #31
    88b8:	e54b3009 	strb	r3, [fp, #-9]
    88bc:	e55b3009 	ldrb	r3, [fp, #-9]
    88c0:	e3a02001 	mov	r2, #1
    88c4:	e1a03312 	lsl	r3, r2, r3
    88c8:	e51b0008 	ldr	r0, [fp, #-8]
    88cc:	e1a01003 	mov	r1, r3
    88d0:	eb000068 	bl	8a78 <bcm2835_peri_write>
    88d4:	e24bd004 	sub	sp, fp, #4
    88d8:	e8bd8800 	pop	{fp, pc}
    88dc:	0000b014 	.word	0x0000b014

000088e0 <bcm2835_gpio_fsel>:
    88e0:	e92d4800 	push	{fp, lr}
    88e4:	e28db004 	add	fp, sp, #4
    88e8:	e24dd018 	sub	sp, sp, #24
    88ec:	e1a03000 	mov	r3, r0
    88f0:	e1a02001 	mov	r2, r1
    88f4:	e54b3015 	strb	r3, [fp, #-21]	; 0xffffffeb
    88f8:	e1a03002 	mov	r3, r2
    88fc:	e54b3016 	strb	r3, [fp, #-22]	; 0xffffffea
    8900:	e59f3090 	ldr	r3, [pc, #144]	; 8998 <bcm2835_gpio_fsel+0xb8>
    8904:	e5932000 	ldr	r2, [r3]
    8908:	e55b3015 	ldrb	r3, [fp, #-21]	; 0xffffffeb
    890c:	e59f1088 	ldr	r1, [pc, #136]	; 899c <bcm2835_gpio_fsel+0xbc>
    8910:	e0831391 	umull	r1, r3, r1, r3
    8914:	e1a031a3 	lsr	r3, r3, #3
    8918:	e6ef3073 	uxtb	r3, r3
    891c:	e1a03103 	lsl	r3, r3, #2
    8920:	e0823003 	add	r3, r2, r3
    8924:	e50b3008 	str	r3, [fp, #-8]
    8928:	e55b2015 	ldrb	r2, [fp, #-21]	; 0xffffffeb
    892c:	e59f3068 	ldr	r3, [pc, #104]	; 899c <bcm2835_gpio_fsel+0xbc>
    8930:	e0831293 	umull	r1, r3, r3, r2
    8934:	e1a011a3 	lsr	r1, r3, #3
    8938:	e1a03001 	mov	r3, r1
    893c:	e1a03103 	lsl	r3, r3, #2
    8940:	e0833001 	add	r3, r3, r1
    8944:	e1a03083 	lsl	r3, r3, #1
    8948:	e0633002 	rsb	r3, r3, r2
    894c:	e6ef3073 	uxtb	r3, r3
    8950:	e1a02003 	mov	r2, r3
    8954:	e1a02082 	lsl	r2, r2, #1
    8958:	e0823003 	add	r3, r2, r3
    895c:	e54b3009 	strb	r3, [fp, #-9]
    8960:	e55b3009 	ldrb	r3, [fp, #-9]
    8964:	e3a02007 	mov	r2, #7
    8968:	e1a03312 	lsl	r3, r2, r3
    896c:	e50b3010 	str	r3, [fp, #-16]
    8970:	e55b2016 	ldrb	r2, [fp, #-22]	; 0xffffffea
    8974:	e55b3009 	ldrb	r3, [fp, #-9]
    8978:	e1a03312 	lsl	r3, r2, r3
    897c:	e50b3014 	str	r3, [fp, #-20]	; 0xffffffec
    8980:	e51b0008 	ldr	r0, [fp, #-8]
    8984:	e51b1014 	ldr	r1, [fp, #-20]	; 0xffffffec
    8988:	e51b2010 	ldr	r2, [fp, #-16]
    898c:	eb000052 	bl	8adc <bcm2835_peri_set_bits>
    8990:	e24bd004 	sub	sp, fp, #4
    8994:	e8bd8800 	pop	{fp, pc}
    8998:	0000b014 	.word	0x0000b014
    899c:	cccccccd 	.word	0xcccccccd

000089a0 <bcm2835_peri_read>:
    89a0:	e52db004 	push	{fp}		; (str fp, [sp, #-4]!)
    89a4:	e28db000 	add	fp, sp, #0
    89a8:	e24dd014 	sub	sp, sp, #20
    89ac:	e50b0010 	str	r0, [fp, #-16]
    89b0:	e51b3010 	ldr	r3, [fp, #-16]
    89b4:	e5933000 	ldr	r3, [r3]
    89b8:	e50b3008 	str	r3, [fp, #-8]
    89bc:	e51b3010 	ldr	r3, [fp, #-16]
    89c0:	e5933000 	ldr	r3, [r3]
    89c4:	e50b300c 	str	r3, [fp, #-12]
    89c8:	e51b3008 	ldr	r3, [fp, #-8]
    89cc:	e1a00003 	mov	r0, r3
    89d0:	e24bd000 	sub	sp, fp, #0
    89d4:	e49db004 	pop	{fp}		; (ldr fp, [sp], #4)
    89d8:	e12fff1e 	bx	lr

000089dc <bcm2835_st_delay>:
    89dc:	e92d4800 	push	{fp, lr}
    89e0:	e28db004 	add	fp, sp, #4
    89e4:	e24dd018 	sub	sp, sp, #24
    89e8:	e14b01f4 	strd	r0, [fp, #-20]	; 0xffffffec
    89ec:	e14b21fc 	strd	r2, [fp, #-28]	; 0xffffffe4
    89f0:	e14b01d4 	ldrd	r0, [fp, #-20]	; 0xffffffec
    89f4:	e14b21dc 	ldrd	r2, [fp, #-28]	; 0xffffffe4
    89f8:	e0922000 	adds	r2, r2, r0
    89fc:	e0a33001 	adc	r3, r3, r1
    8a00:	e14b20fc 	strd	r2, [fp, #-12]
    8a04:	e1a00000 	nop			; (mov r0, r0)
    8a08:	ebffff23 	bl	869c <bcm2835_st_read>
    8a0c:	e14b20dc 	ldrd	r2, [fp, #-12]
    8a10:	e1510003 	cmp	r1, r3
    8a14:	01500002 	cmpeq	r0, r2
    8a18:	3afffffa 	bcc	8a08 <bcm2835_st_delay+0x2c>
    8a1c:	e24bd004 	sub	sp, fp, #4
    8a20:	e8bd8800 	pop	{fp, pc}

00008a24 <bcm2835_delayMicroseconds>:
    8a24:	e92d4800 	push	{fp, lr}
    8a28:	e28db004 	add	fp, sp, #4
    8a2c:	e24dd010 	sub	sp, sp, #16
    8a30:	e14b01f4 	strd	r0, [fp, #-20]	; 0xffffffec
    8a34:	ebffff18 	bl	869c <bcm2835_st_read>
    8a38:	e14b00fc 	strd	r0, [fp, #-12]
    8a3c:	e14b00dc 	ldrd	r0, [fp, #-12]
    8a40:	e14b21d4 	ldrd	r2, [fp, #-20]	; 0xffffffec
    8a44:	ebffffe4 	bl	89dc <bcm2835_st_delay>
    8a48:	e24bd004 	sub	sp, fp, #4
    8a4c:	e8bd8800 	pop	{fp, pc}

00008a50 <bcm2835_peri_read_nb>:
    8a50:	e52db004 	push	{fp}		; (str fp, [sp, #-4]!)
    8a54:	e28db000 	add	fp, sp, #0
    8a58:	e24dd00c 	sub	sp, sp, #12
    8a5c:	e50b0008 	str	r0, [fp, #-8]
    8a60:	e51b3008 	ldr	r3, [fp, #-8]
    8a64:	e5933000 	ldr	r3, [r3]
    8a68:	e1a00003 	mov	r0, r3
    8a6c:	e24bd000 	sub	sp, fp, #0
    8a70:	e49db004 	pop	{fp}		; (ldr fp, [sp], #4)
    8a74:	e12fff1e 	bx	lr

00008a78 <bcm2835_peri_write>:
    8a78:	e52db004 	push	{fp}		; (str fp, [sp, #-4]!)
    8a7c:	e28db000 	add	fp, sp, #0
    8a80:	e24dd00c 	sub	sp, sp, #12
    8a84:	e50b0008 	str	r0, [fp, #-8]
    8a88:	e50b100c 	str	r1, [fp, #-12]
    8a8c:	e51b3008 	ldr	r3, [fp, #-8]
    8a90:	e51b200c 	ldr	r2, [fp, #-12]
    8a94:	e5832000 	str	r2, [r3]
    8a98:	e51b3008 	ldr	r3, [fp, #-8]
    8a9c:	e51b200c 	ldr	r2, [fp, #-12]
    8aa0:	e5832000 	str	r2, [r3]
    8aa4:	e24bd000 	sub	sp, fp, #0
    8aa8:	e49db004 	pop	{fp}		; (ldr fp, [sp], #4)
    8aac:	e12fff1e 	bx	lr

00008ab0 <bcm2835_peri_write_nb>:
    8ab0:	e52db004 	push	{fp}		; (str fp, [sp, #-4]!)
    8ab4:	e28db000 	add	fp, sp, #0
    8ab8:	e24dd00c 	sub	sp, sp, #12
    8abc:	e50b0008 	str	r0, [fp, #-8]
    8ac0:	e50b100c 	str	r1, [fp, #-12]
    8ac4:	e51b3008 	ldr	r3, [fp, #-8]
    8ac8:	e51b200c 	ldr	r2, [fp, #-12]
    8acc:	e5832000 	str	r2, [r3]
    8ad0:	e24bd000 	sub	sp, fp, #0
    8ad4:	e49db004 	pop	{fp}		; (ldr fp, [sp], #4)
    8ad8:	e12fff1e 	bx	lr

00008adc <bcm2835_peri_set_bits>:
    8adc:	e92d4800 	push	{fp, lr}
    8ae0:	e28db004 	add	fp, sp, #4
    8ae4:	e24dd018 	sub	sp, sp, #24
    8ae8:	e50b0010 	str	r0, [fp, #-16]
    8aec:	e50b1014 	str	r1, [fp, #-20]	; 0xffffffec
    8af0:	e50b2018 	str	r2, [fp, #-24]	; 0xffffffe8
    8af4:	e51b0010 	ldr	r0, [fp, #-16]
    8af8:	ebffffa8 	bl	89a0 <bcm2835_peri_read>
    8afc:	e50b0008 	str	r0, [fp, #-8]
    8b00:	e51b3018 	ldr	r3, [fp, #-24]	; 0xffffffe8
    8b04:	e1e02003 	mvn	r2, r3
    8b08:	e51b3008 	ldr	r3, [fp, #-8]
    8b0c:	e0022003 	and	r2, r2, r3
    8b10:	e51b1014 	ldr	r1, [fp, #-20]	; 0xffffffec
    8b14:	e51b3018 	ldr	r3, [fp, #-24]	; 0xffffffe8
    8b18:	e0033001 	and	r3, r3, r1
    8b1c:	e1823003 	orr	r3, r2, r3
    8b20:	e50b3008 	str	r3, [fp, #-8]
    8b24:	e51b0010 	ldr	r0, [fp, #-16]
    8b28:	e51b1008 	ldr	r1, [fp, #-8]
    8b2c:	ebffffd1 	bl	8a78 <bcm2835_peri_write>
    8b30:	e24bd004 	sub	sp, fp, #4
    8b34:	e8bd8800 	pop	{fp, pc}

00008b38 <bcm2835_gpio_clr>:
    8b38:	e92d4800 	push	{fp, lr}
    8b3c:	e28db004 	add	fp, sp, #4
    8b40:	e24dd010 	sub	sp, sp, #16
    8b44:	e1a03000 	mov	r3, r0
    8b48:	e54b300d 	strb	r3, [fp, #-13]
    8b4c:	e59f3048 	ldr	r3, [pc, #72]	; 8b9c <bcm2835_gpio_clr+0x64>
    8b50:	e5932000 	ldr	r2, [r3]
    8b54:	e55b300d 	ldrb	r3, [fp, #-13]
    8b58:	e1a032a3 	lsr	r3, r3, #5
    8b5c:	e6ef3073 	uxtb	r3, r3
    8b60:	e283300a 	add	r3, r3, #10
    8b64:	e1a03103 	lsl	r3, r3, #2
    8b68:	e0823003 	add	r3, r2, r3
    8b6c:	e50b3008 	str	r3, [fp, #-8]
    8b70:	e55b300d 	ldrb	r3, [fp, #-13]
    8b74:	e203301f 	and	r3, r3, #31
    8b78:	e54b3009 	strb	r3, [fp, #-9]
    8b7c:	e55b3009 	ldrb	r3, [fp, #-9]
    8b80:	e3a02001 	mov	r2, #1
    8b84:	e1a03312 	lsl	r3, r2, r3
    8b88:	e51b0008 	ldr	r0, [fp, #-8]
    8b8c:	e1a01003 	mov	r1, r3
    8b90:	ebffffb8 	bl	8a78 <bcm2835_peri_write>
    8b94:	e24bd004 	sub	sp, fp, #4
    8b98:	e8bd8800 	pop	{fp, pc}
    8b9c:	0000b014 	.word	0x0000b014

00008ba0 <bcm2835_gpio_write>:
    8ba0:	e92d4800 	push	{fp, lr}
    8ba4:	e28db004 	add	fp, sp, #4
    8ba8:	e24dd008 	sub	sp, sp, #8
    8bac:	e1a03000 	mov	r3, r0
    8bb0:	e1a02001 	mov	r2, r1
    8bb4:	e54b3005 	strb	r3, [fp, #-5]
    8bb8:	e1a03002 	mov	r3, r2
    8bbc:	e54b3006 	strb	r3, [fp, #-6]
    8bc0:	e55b3006 	ldrb	r3, [fp, #-6]
    8bc4:	e3530000 	cmp	r3, #0
    8bc8:	0a000003 	beq	8bdc <bcm2835_gpio_write+0x3c>
    8bcc:	e55b3005 	ldrb	r3, [fp, #-5]
    8bd0:	e1a00003 	mov	r0, r3
    8bd4:	ebffff27 	bl	8878 <bcm2835_gpio_set>
    8bd8:	ea000002 	b	8be8 <bcm2835_gpio_write+0x48>
    8bdc:	e55b3005 	ldrb	r3, [fp, #-5]
    8be0:	e1a00003 	mov	r0, r3
    8be4:	ebffffd3 	bl	8b38 <bcm2835_gpio_clr>
    8be8:	e24bd004 	sub	sp, fp, #4
    8bec:	e8bd8800 	pop	{fp, pc}

00008bf0 <bcm2835_spi_chipSelect>:
    8bf0:	e92d4800 	push	{fp, lr}
    8bf4:	e28db004 	add	fp, sp, #4
    8bf8:	e24dd010 	sub	sp, sp, #16
    8bfc:	e1a03000 	mov	r3, r0
    8c00:	e54b300d 	strb	r3, [fp, #-13]
    8c04:	e59f3020 	ldr	r3, [pc, #32]	; 8c2c <bcm2835_spi_chipSelect+0x3c>
    8c08:	e5933000 	ldr	r3, [r3]
    8c0c:	e50b3008 	str	r3, [fp, #-8]
    8c10:	e55b300d 	ldrb	r3, [fp, #-13]
    8c14:	e51b0008 	ldr	r0, [fp, #-8]
    8c18:	e1a01003 	mov	r1, r3
    8c1c:	e3a02003 	mov	r2, #3
    8c20:	ebffffad 	bl	8adc <bcm2835_peri_set_bits>
    8c24:	e24bd004 	sub	sp, fp, #4
    8c28:	e8bd8800 	pop	{fp, pc}
    8c2c:	0000b020 	.word	0x0000b020

00008c30 <bcm2835_spi_setChipSelectPolarity>:
    8c30:	e92d4800 	push	{fp, lr}
    8c34:	e28db004 	add	fp, sp, #4
    8c38:	e24dd010 	sub	sp, sp, #16
    8c3c:	e1a03000 	mov	r3, r0
    8c40:	e1a02001 	mov	r2, r1
    8c44:	e54b300d 	strb	r3, [fp, #-13]
    8c48:	e1a03002 	mov	r3, r2
    8c4c:	e54b300e 	strb	r3, [fp, #-14]
    8c50:	e59f3040 	ldr	r3, [pc, #64]	; 8c98 <bcm2835_spi_setChipSelectPolarity+0x68>
    8c54:	e5933000 	ldr	r3, [r3]
    8c58:	e50b3008 	str	r3, [fp, #-8]
    8c5c:	e55b300d 	ldrb	r3, [fp, #-13]
    8c60:	e2833015 	add	r3, r3, #21
    8c64:	e54b3009 	strb	r3, [fp, #-9]
    8c68:	e55b200e 	ldrb	r2, [fp, #-14]
    8c6c:	e55b3009 	ldrb	r3, [fp, #-9]
    8c70:	e1a03312 	lsl	r3, r2, r3
    8c74:	e1a01003 	mov	r1, r3
    8c78:	e55b3009 	ldrb	r3, [fp, #-9]
    8c7c:	e3a02001 	mov	r2, #1
    8c80:	e1a03312 	lsl	r3, r2, r3
    8c84:	e51b0008 	ldr	r0, [fp, #-8]
    8c88:	e1a02003 	mov	r2, r3
    8c8c:	ebffff92 	bl	8adc <bcm2835_peri_set_bits>
    8c90:	e24bd004 	sub	sp, fp, #4
    8c94:	e8bd8800 	pop	{fp, pc}
    8c98:	0000b020 	.word	0x0000b020

00008c9c <mmio_write>:
    8c9c:	e52db004 	push	{fp}		; (str fp, [sp, #-4]!)
    8ca0:	e28db000 	add	fp, sp, #0
    8ca4:	e24dd014 	sub	sp, sp, #20
    8ca8:	e50b0010 	str	r0, [fp, #-16]
    8cac:	e50b1014 	str	r1, [fp, #-20]	; 0xffffffec
    8cb0:	e51b3010 	ldr	r3, [fp, #-16]
    8cb4:	e50b3008 	str	r3, [fp, #-8]
    8cb8:	e51b3008 	ldr	r3, [fp, #-8]
    8cbc:	e51b2014 	ldr	r2, [fp, #-20]	; 0xffffffec
    8cc0:	e5832000 	str	r2, [r3]
    8cc4:	e24bd000 	sub	sp, fp, #0
    8cc8:	e49db004 	pop	{fp}		; (ldr fp, [sp], #4)
    8ccc:	e12fff1e 	bx	lr

00008cd0 <testdelay>:
    8cd0:	e52db004 	push	{fp}		; (str fp, [sp, #-4]!)
    8cd4:	e28db000 	add	fp, sp, #0
    8cd8:	e24dd00c 	sub	sp, sp, #12
    8cdc:	e59f3028 	ldr	r3, [pc, #40]	; 8d0c <testdelay+0x3c>
    8ce0:	e50b3008 	str	r3, [fp, #-8]
    8ce4:	ea000002 	b	8cf4 <testdelay+0x24>
    8ce8:	e51b3008 	ldr	r3, [fp, #-8]
    8cec:	e2433001 	sub	r3, r3, #1
    8cf0:	e50b3008 	str	r3, [fp, #-8]
    8cf4:	e51b3008 	ldr	r3, [fp, #-8]
    8cf8:	e3530000 	cmp	r3, #0
    8cfc:	cafffff9 	bgt	8ce8 <testdelay+0x18>
    8d00:	e24bd000 	sub	sp, fp, #0
    8d04:	e49db004 	pop	{fp}		; (ldr fp, [sp], #4)
    8d08:	e12fff1e 	bx	lr
    8d0c:	000fffff 	.word	0x000fffff

00008d10 <enable_irq_57>:
    8d10:	e92d4800 	push	{fp, lr}
    8d14:	e28db004 	add	fp, sp, #4
    8d18:	e59f0008 	ldr	r0, [pc, #8]	; 8d28 <enable_irq_57+0x18>
    8d1c:	e3a01402 	mov	r1, #33554432	; 0x2000000
    8d20:	ebffffdd 	bl	8c9c <mmio_write>
    8d24:	e8bd8800 	pop	{fp, pc}
    8d28:	2000b214 	.word	0x2000b214

00008d2c <disable_irq_57>:
    8d2c:	e92d4800 	push	{fp, lr}
    8d30:	e28db004 	add	fp, sp, #4
    8d34:	e59f0008 	ldr	r0, [pc, #8]	; 8d44 <disable_irq_57+0x18>
    8d38:	e3a01402 	mov	r1, #33554432	; 0x2000000
    8d3c:	ebffffd6 	bl	8c9c <mmio_write>
    8d40:	e8bd8800 	pop	{fp, pc}
    8d44:	2000b220 	.word	0x2000b220

00008d48 <banner>:
    8d48:	e92d4800 	push	{fp, lr}
    8d4c:	e28db004 	add	fp, sp, #4
    8d50:	e59f000c 	ldr	r0, [pc, #12]	; 8d64 <banner+0x1c>
    8d54:	ebfffde6 	bl	84f4 <uart_puts>
    8d58:	e59f0008 	ldr	r0, [pc, #8]	; 8d68 <banner+0x20>
    8d5c:	ebfffde4 	bl	84f4 <uart_puts>
    8d60:	e8bd8800 	pop	{fp, pc}
    8d64:	0000aaec 	.word	0x0000aaec
    8d68:	0000ab04 	.word	0x0000ab04

00008d6c <BCDtoUint8>:
    8d6c:	e52db004 	push	{fp}		; (str fp, [sp, #-4]!)
    8d70:	e28db000 	add	fp, sp, #0
    8d74:	e24dd00c 	sub	sp, sp, #12
    8d78:	e1a03000 	mov	r3, r0
    8d7c:	e54b3005 	strb	r3, [fp, #-5]
    8d80:	e55b3005 	ldrb	r3, [fp, #-5]
    8d84:	e203300f 	and	r3, r3, #15
    8d88:	e6ef2073 	uxtb	r2, r3
    8d8c:	e55b3005 	ldrb	r3, [fp, #-5]
    8d90:	e1a03223 	lsr	r3, r3, #4
    8d94:	e6ef3073 	uxtb	r3, r3
    8d98:	e1a01003 	mov	r1, r3
    8d9c:	e1a01101 	lsl	r1, r1, #2
    8da0:	e0813003 	add	r3, r1, r3
    8da4:	e1a03083 	lsl	r3, r3, #1
    8da8:	e6ef3073 	uxtb	r3, r3
    8dac:	e0823003 	add	r3, r2, r3
    8db0:	e6ef3073 	uxtb	r3, r3
    8db4:	e1a00003 	mov	r0, r3
    8db8:	e24bd000 	sub	sp, fp, #0
    8dbc:	e49db004 	pop	{fp}		; (ldr fp, [sp], #4)
    8dc0:	e12fff1e 	bx	lr

00008dc4 <RES>:
    8dc4:	e92d4800 	push	{fp, lr}
    8dc8:	e28db004 	add	fp, sp, #4
    8dcc:	ebfffcb7 	bl	80b0 <reboot>
    8dd0:	e8bd8800 	pop	{fp, pc}

00008dd4 <MENU>:
    8dd4:	e92d4800 	push	{fp, lr}
    8dd8:	e28db004 	add	fp, sp, #4
    8ddc:	e59f0004 	ldr	r0, [pc, #4]	; 8de8 <MENU+0x14>
    8de0:	ebfffdc3 	bl	84f4 <uart_puts>
    8de4:	e8bd8800 	pop	{fp, pc}
    8de8:	0000ab68 	.word	0x0000ab68

00008dec <wait_for_response>:
    8dec:	e52db004 	push	{fp}		; (str fp, [sp, #-4]!)
    8df0:	e28db000 	add	fp, sp, #0
    8df4:	e59f3024 	ldr	r3, [pc, #36]	; 8e20 <wait_for_response+0x34>
    8df8:	e3a02000 	mov	r2, #0
    8dfc:	e5c32000 	strb	r2, [r3]
    8e00:	e1a00000 	nop			; (mov r0, r0)
    8e04:	e59f3014 	ldr	r3, [pc, #20]	; 8e20 <wait_for_response+0x34>
    8e08:	e5d33000 	ldrb	r3, [r3]
    8e0c:	e3530000 	cmp	r3, #0
    8e10:	0afffffb 	beq	8e04 <wait_for_response+0x18>
    8e14:	e24bd000 	sub	sp, fp, #0
    8e18:	e49db004 	pop	{fp}		; (ldr fp, [sp], #4)
    8e1c:	e12fff1e 	bx	lr
    8e20:	0000b034 	.word	0x0000b034

00008e24 <char_to_int>:
    8e24:	e52db004 	push	{fp}		; (str fp, [sp, #-4]!)
    8e28:	e28db000 	add	fp, sp, #0
    8e2c:	e24dd00c 	sub	sp, sp, #12
    8e30:	e1a03000 	mov	r3, r0
    8e34:	e54b3005 	strb	r3, [fp, #-5]
    8e38:	e55b3005 	ldrb	r3, [fp, #-5]
    8e3c:	e2433030 	sub	r3, r3, #48	; 0x30
    8e40:	e1a00003 	mov	r0, r3
    8e44:	e24bd000 	sub	sp, fp, #0
    8e48:	e49db004 	pop	{fp}		; (ldr fp, [sp], #4)
    8e4c:	e12fff1e 	bx	lr

00008e50 <itoa>:
    8e50:	e52db004 	push	{fp}		; (str fp, [sp, #-4]!)
    8e54:	e28db000 	add	fp, sp, #0
    8e58:	e24dd024 	sub	sp, sp, #36	; 0x24
    8e5c:	e50b0020 	str	r0, [fp, #-32]	; 0xffffffe0
    8e60:	e50b1024 	str	r1, [fp, #-36]	; 0xffffffdc
    8e64:	e59f211c 	ldr	r2, [pc, #284]	; 8f88 <itoa+0x138>
    8e68:	e24b3018 	sub	r3, fp, #24
    8e6c:	e8920007 	ldm	r2, {r0, r1, r2}
    8e70:	e8a30003 	stmia	r3!, {r0, r1}
    8e74:	e1c320b0 	strh	r2, [r3]
    8e78:	e2833002 	add	r3, r3, #2
    8e7c:	e1a02822 	lsr	r2, r2, #16
    8e80:	e5c32000 	strb	r2, [r3]
    8e84:	e51b3024 	ldr	r3, [fp, #-36]	; 0xffffffdc
    8e88:	e50b3008 	str	r3, [fp, #-8]
    8e8c:	e51b3020 	ldr	r3, [fp, #-32]	; 0xffffffe0
    8e90:	e3530000 	cmp	r3, #0
    8e94:	aa000007 	bge	8eb8 <itoa+0x68>
    8e98:	e51b3008 	ldr	r3, [fp, #-8]
    8e9c:	e2832001 	add	r2, r3, #1
    8ea0:	e50b2008 	str	r2, [fp, #-8]
    8ea4:	e3a0202d 	mov	r2, #45	; 0x2d
    8ea8:	e5c32000 	strb	r2, [r3]
    8eac:	e51b3020 	ldr	r3, [fp, #-32]	; 0xffffffe0
    8eb0:	e2633000 	rsb	r3, r3, #0
    8eb4:	e50b3020 	str	r3, [fp, #-32]	; 0xffffffe0
    8eb8:	e51b3020 	ldr	r3, [fp, #-32]	; 0xffffffe0
    8ebc:	e50b300c 	str	r3, [fp, #-12]
    8ec0:	e51b3008 	ldr	r3, [fp, #-8]
    8ec4:	e2833001 	add	r3, r3, #1
    8ec8:	e50b3008 	str	r3, [fp, #-8]
    8ecc:	e51b300c 	ldr	r3, [fp, #-12]
    8ed0:	e59f20b4 	ldr	r2, [pc, #180]	; 8f8c <itoa+0x13c>
    8ed4:	e0c21392 	smull	r1, r2, r2, r3
    8ed8:	e1a02142 	asr	r2, r2, #2
    8edc:	e1a03fc3 	asr	r3, r3, #31
    8ee0:	e0633002 	rsb	r3, r3, r2
    8ee4:	e50b300c 	str	r3, [fp, #-12]
    8ee8:	e51b300c 	ldr	r3, [fp, #-12]
    8eec:	e3530000 	cmp	r3, #0
    8ef0:	1afffff2 	bne	8ec0 <itoa+0x70>
    8ef4:	e51b3008 	ldr	r3, [fp, #-8]
    8ef8:	e3a02000 	mov	r2, #0
    8efc:	e5c32000 	strb	r2, [r3]
    8f00:	e51b3008 	ldr	r3, [fp, #-8]
    8f04:	e2433001 	sub	r3, r3, #1
    8f08:	e50b3008 	str	r3, [fp, #-8]
    8f0c:	e51b1020 	ldr	r1, [fp, #-32]	; 0xffffffe0
    8f10:	e59f3074 	ldr	r3, [pc, #116]	; 8f8c <itoa+0x13c>
    8f14:	e0c32193 	smull	r2, r3, r3, r1
    8f18:	e1a02143 	asr	r2, r3, #2
    8f1c:	e1a03fc1 	asr	r3, r1, #31
    8f20:	e0632002 	rsb	r2, r3, r2
    8f24:	e1a03002 	mov	r3, r2
    8f28:	e1a03103 	lsl	r3, r3, #2
    8f2c:	e0833002 	add	r3, r3, r2
    8f30:	e1a03083 	lsl	r3, r3, #1
    8f34:	e0632001 	rsb	r2, r3, r1
    8f38:	e24b3004 	sub	r3, fp, #4
    8f3c:	e0833002 	add	r3, r3, r2
    8f40:	e5532014 	ldrb	r2, [r3, #-20]	; 0xffffffec
    8f44:	e51b3008 	ldr	r3, [fp, #-8]
    8f48:	e5c32000 	strb	r2, [r3]
    8f4c:	e51b3020 	ldr	r3, [fp, #-32]	; 0xffffffe0
    8f50:	e59f2034 	ldr	r2, [pc, #52]	; 8f8c <itoa+0x13c>
    8f54:	e0c21392 	smull	r1, r2, r2, r3
    8f58:	e1a02142 	asr	r2, r2, #2
    8f5c:	e1a03fc3 	asr	r3, r3, #31
    8f60:	e0633002 	rsb	r3, r3, r2
    8f64:	e50b3020 	str	r3, [fp, #-32]	; 0xffffffe0
    8f68:	e51b3020 	ldr	r3, [fp, #-32]	; 0xffffffe0
    8f6c:	e3530000 	cmp	r3, #0
    8f70:	1affffe2 	bne	8f00 <itoa+0xb0>
    8f74:	e51b3024 	ldr	r3, [fp, #-36]	; 0xffffffdc
    8f78:	e1a00003 	mov	r0, r3
    8f7c:	e24bd000 	sub	sp, fp, #0
    8f80:	e49db004 	pop	{fp}		; (ldr fp, [sp], #4)
    8f84:	e12fff1e 	bx	lr
    8f88:	0000ab90 	.word	0x0000ab90
    8f8c:	66666667 	.word	0x66666667

00008f90 <get_numbers>:
    8f90:	e92d4800 	push	{fp, lr}
    8f94:	e28db004 	add	fp, sp, #4
    8f98:	e59f009c 	ldr	r0, [pc, #156]	; 903c <get_numbers+0xac>
    8f9c:	ebfffd54 	bl	84f4 <uart_puts>
    8fa0:	ebffff91 	bl	8dec <wait_for_response>
    8fa4:	e59f3094 	ldr	r3, [pc, #148]	; 9040 <get_numbers+0xb0>
    8fa8:	e5d32000 	ldrb	r2, [r3]
    8fac:	e59f3090 	ldr	r3, [pc, #144]	; 9044 <get_numbers+0xb4>
    8fb0:	e5c32000 	strb	r2, [r3]
    8fb4:	e59f3088 	ldr	r3, [pc, #136]	; 9044 <get_numbers+0xb4>
    8fb8:	e5d33000 	ldrb	r3, [r3]
    8fbc:	e1a00003 	mov	r0, r3
    8fc0:	ebffff97 	bl	8e24 <char_to_int>
    8fc4:	e1a02000 	mov	r2, r0
    8fc8:	e59f3078 	ldr	r3, [pc, #120]	; 9048 <get_numbers+0xb8>
    8fcc:	e5832000 	str	r2, [r3]
    8fd0:	e59f0074 	ldr	r0, [pc, #116]	; 904c <get_numbers+0xbc>
    8fd4:	ebfffd46 	bl	84f4 <uart_puts>
    8fd8:	ebffff83 	bl	8dec <wait_for_response>
    8fdc:	e59f305c 	ldr	r3, [pc, #92]	; 9040 <get_numbers+0xb0>
    8fe0:	e5d32000 	ldrb	r2, [r3]
    8fe4:	e59f3064 	ldr	r3, [pc, #100]	; 9050 <get_numbers+0xc0>
    8fe8:	e5c32000 	strb	r2, [r3]
    8fec:	e59f305c 	ldr	r3, [pc, #92]	; 9050 <get_numbers+0xc0>
    8ff0:	e5d33000 	ldrb	r3, [r3]
    8ff4:	e1a00003 	mov	r0, r3
    8ff8:	ebffff89 	bl	8e24 <char_to_int>
    8ffc:	e1a02000 	mov	r2, r0
    9000:	e59f304c 	ldr	r3, [pc, #76]	; 9054 <get_numbers+0xc4>
    9004:	e5832000 	str	r2, [r3]
    9008:	e59f002c 	ldr	r0, [pc, #44]	; 903c <get_numbers+0xac>
    900c:	ebfffd38 	bl	84f4 <uart_puts>
    9010:	e59f302c 	ldr	r3, [pc, #44]	; 9044 <get_numbers+0xb4>
    9014:	e5d33000 	ldrb	r3, [r3]
    9018:	e1a00003 	mov	r0, r3
    901c:	ebfffd0d 	bl	8458 <uart_putc>
    9020:	e59f0024 	ldr	r0, [pc, #36]	; 904c <get_numbers+0xbc>
    9024:	ebfffd32 	bl	84f4 <uart_puts>
    9028:	e59f3020 	ldr	r3, [pc, #32]	; 9050 <get_numbers+0xc0>
    902c:	e5d33000 	ldrb	r3, [r3]
    9030:	e1a00003 	mov	r0, r3
    9034:	ebfffd07 	bl	8458 <uart_putc>
    9038:	e8bd8800 	pop	{fp, pc}
    903c:	0000ab9c 	.word	0x0000ab9c
    9040:	0000b034 	.word	0x0000b034
    9044:	0000b035 	.word	0x0000b035
    9048:	0000b038 	.word	0x0000b038
    904c:	0000abac 	.word	0x0000abac
    9050:	0000b03c 	.word	0x0000b03c
    9054:	0000b040 	.word	0x0000b040

00009058 <ADD>:
    9058:	e92d4800 	push	{fp, lr}
    905c:	e28db004 	add	fp, sp, #4
    9060:	ebffffca 	bl	8f90 <get_numbers>
    9064:	e59f3048 	ldr	r3, [pc, #72]	; 90b4 <ADD+0x5c>
    9068:	e5932000 	ldr	r2, [r3]
    906c:	e59f3044 	ldr	r3, [pc, #68]	; 90b8 <ADD+0x60>
    9070:	e5933000 	ldr	r3, [r3]
    9074:	e1a00002 	mov	r0, r2
    9078:	e1a01003 	mov	r1, r3
    907c:	ebfffc20 	bl	8104 <add>
    9080:	e1a02000 	mov	r2, r0
    9084:	e59f3030 	ldr	r3, [pc, #48]	; 90bc <ADD+0x64>
    9088:	e5832000 	str	r2, [r3]
    908c:	e59f3028 	ldr	r3, [pc, #40]	; 90bc <ADD+0x64>
    9090:	e5933000 	ldr	r3, [r3]
    9094:	e1a00003 	mov	r0, r3
    9098:	e59f1020 	ldr	r1, [pc, #32]	; 90c0 <ADD+0x68>
    909c:	ebffff6b 	bl	8e50 <itoa>
    90a0:	e59f001c 	ldr	r0, [pc, #28]	; 90c4 <ADD+0x6c>
    90a4:	ebfffd12 	bl	84f4 <uart_puts>
    90a8:	e59f0010 	ldr	r0, [pc, #16]	; 90c0 <ADD+0x68>
    90ac:	ebfffd10 	bl	84f4 <uart_puts>
    90b0:	e8bd8800 	pop	{fp, pc}
    90b4:	0000b038 	.word	0x0000b038
    90b8:	0000b040 	.word	0x0000b040
    90bc:	0000b044 	.word	0x0000b044
    90c0:	0000b054 	.word	0x0000b054
    90c4:	0000abbc 	.word	0x0000abbc

000090c8 <SUBTRACT>:
    90c8:	e92d4800 	push	{fp, lr}
    90cc:	e28db004 	add	fp, sp, #4
    90d0:	ebffffae 	bl	8f90 <get_numbers>
    90d4:	e59f3048 	ldr	r3, [pc, #72]	; 9124 <SUBTRACT+0x5c>
    90d8:	e5932000 	ldr	r2, [r3]
    90dc:	e59f3044 	ldr	r3, [pc, #68]	; 9128 <SUBTRACT+0x60>
    90e0:	e5933000 	ldr	r3, [r3]
    90e4:	e1a00002 	mov	r0, r2
    90e8:	e1a01003 	mov	r1, r3
    90ec:	ebfffc06 	bl	810c <subtract>
    90f0:	e1a02000 	mov	r2, r0
    90f4:	e59f3030 	ldr	r3, [pc, #48]	; 912c <SUBTRACT+0x64>
    90f8:	e5832000 	str	r2, [r3]
    90fc:	e59f3028 	ldr	r3, [pc, #40]	; 912c <SUBTRACT+0x64>
    9100:	e5933000 	ldr	r3, [r3]
    9104:	e1a00003 	mov	r0, r3
    9108:	e59f1020 	ldr	r1, [pc, #32]	; 9130 <SUBTRACT+0x68>
    910c:	ebffff4f 	bl	8e50 <itoa>
    9110:	e59f001c 	ldr	r0, [pc, #28]	; 9134 <SUBTRACT+0x6c>
    9114:	ebfffcf6 	bl	84f4 <uart_puts>
    9118:	e59f0010 	ldr	r0, [pc, #16]	; 9130 <SUBTRACT+0x68>
    911c:	ebfffcf4 	bl	84f4 <uart_puts>
    9120:	e8bd8800 	pop	{fp, pc}
    9124:	0000b038 	.word	0x0000b038
    9128:	0000b040 	.word	0x0000b040
    912c:	0000b044 	.word	0x0000b044
    9130:	0000b054 	.word	0x0000b054
    9134:	0000abc4 	.word	0x0000abc4

00009138 <DIVIDE>:
    9138:	e92d4800 	push	{fp, lr}
    913c:	e28db004 	add	fp, sp, #4
    9140:	ebffff92 	bl	8f90 <get_numbers>
    9144:	e59f0004 	ldr	r0, [pc, #4]	; 9150 <DIVIDE+0x18>
    9148:	ebfffce9 	bl	84f4 <uart_puts>
    914c:	e8bd8800 	pop	{fp, pc}
    9150:	0000abd0 	.word	0x0000abd0

00009154 <MULTIPLY>:
    9154:	e92d4800 	push	{fp, lr}
    9158:	e28db004 	add	fp, sp, #4
    915c:	ebffff8b 	bl	8f90 <get_numbers>
    9160:	e59f0004 	ldr	r0, [pc, #4]	; 916c <MULTIPLY+0x18>
    9164:	ebfffce2 	bl	84f4 <uart_puts>
    9168:	e8bd8800 	pop	{fp, pc}
    916c:	0000abdc 	.word	0x0000abdc

00009170 <command>:
    9170:	e92d4800 	push	{fp, lr}
    9174:	e28db004 	add	fp, sp, #4
    9178:	e59f009c 	ldr	r0, [pc, #156]	; 921c <command+0xac>
    917c:	ebfffcdc 	bl	84f4 <uart_puts>
    9180:	ebffff19 	bl	8dec <wait_for_response>
    9184:	e59f3094 	ldr	r3, [pc, #148]	; 9220 <command+0xb0>
    9188:	e5d33000 	ldrb	r3, [r3]
    918c:	e2433061 	sub	r3, r3, #97	; 0x61
    9190:	e3530012 	cmp	r3, #18
    9194:	979ff103 	ldrls	pc, [pc, r3, lsl #2]
    9198:	ea00001a 	b	9208 <command+0x98>
    919c:	000091e8 	.word	0x000091e8
    91a0:	00009208 	.word	0x00009208
    91a4:	00009208 	.word	0x00009208
    91a8:	000091f8 	.word	0x000091f8
    91ac:	00009208 	.word	0x00009208
    91b0:	00009208 	.word	0x00009208
    91b4:	00009208 	.word	0x00009208
    91b8:	00009208 	.word	0x00009208
    91bc:	00009208 	.word	0x00009208
    91c0:	00009208 	.word	0x00009208
    91c4:	00009208 	.word	0x00009208
    91c8:	00009208 	.word	0x00009208
    91cc:	00009200 	.word	0x00009200
    91d0:	00009208 	.word	0x00009208
    91d4:	00009208 	.word	0x00009208
    91d8:	00009208 	.word	0x00009208
    91dc:	00009208 	.word	0x00009208
    91e0:	00009208 	.word	0x00009208
    91e4:	000091f0 	.word	0x000091f0
    91e8:	ebffff9a 	bl	9058 <ADD>
    91ec:	ea000008 	b	9214 <command+0xa4>
    91f0:	ebffffb4 	bl	90c8 <SUBTRACT>
    91f4:	ea000006 	b	9214 <command+0xa4>
    91f8:	ebffffce 	bl	9138 <DIVIDE>
    91fc:	ea000004 	b	9214 <command+0xa4>
    9200:	ebffffd3 	bl	9154 <MULTIPLY>
    9204:	ea000002 	b	9214 <command+0xa4>
    9208:	e59f0014 	ldr	r0, [pc, #20]	; 9224 <command+0xb4>
    920c:	ebfffcb8 	bl	84f4 <uart_puts>
    9210:	e1a00000 	nop			; (mov r0, r0)
    9214:	ebfffeee 	bl	8dd4 <MENU>
    9218:	e8bd8800 	pop	{fp, pc}
    921c:	0000ab3c 	.word	0x0000ab3c
    9220:	0000b034 	.word	0x0000b034
    9224:	0000ab48 	.word	0x0000ab48

00009228 <kernel_main>:
    9228:	e92d4800 	push	{fp, lr}
    922c:	e28db004 	add	fp, sp, #4
    9230:	ebfffc59 	bl	839c <uart_init>
    9234:	ebfffeb5 	bl	8d10 <enable_irq_57>
    9238:	ebfffb9d 	bl	80b4 <enable_arm_irq>
    923c:	ebfffec1 	bl	8d48 <banner>
    9240:	ebfffee3 	bl	8dd4 <MENU>
    9244:	ebffffc9 	bl	9170 <command>
    9248:	eafffffd 	b	9244 <kernel_main+0x1c>

0000924c <irq_handler>:
    924c:	e92d4800 	push	{fp, lr}
    9250:	e28db004 	add	fp, sp, #4
    9254:	ebfffc94 	bl	84ac <uart_readc>
    9258:	e1a03000 	mov	r3, r0
    925c:	e1a02003 	mov	r2, r3
    9260:	e59f3024 	ldr	r3, [pc, #36]	; 928c <irq_handler+0x40>
    9264:	e5c32000 	strb	r2, [r3]
    9268:	e3a00020 	mov	r0, #32
    926c:	ebfffc79 	bl	8458 <uart_putc>
    9270:	e59f3014 	ldr	r3, [pc, #20]	; 928c <irq_handler+0x40>
    9274:	e5d33000 	ldrb	r3, [r3]
    9278:	e1a00003 	mov	r0, r3
    927c:	ebfffc75 	bl	8458 <uart_putc>
    9280:	e3a00020 	mov	r0, #32
    9284:	ebfffc73 	bl	8458 <uart_putc>
    9288:	e8bd8800 	pop	{fp, pc}
    928c:	0000b034 	.word	0x0000b034

00009290 <float32_is_signaling_nan>:
    9290:	e52db004 	push	{fp}		; (str fp, [sp, #-4]!)
    9294:	e28db000 	add	fp, sp, #0
    9298:	e24dd00c 	sub	sp, sp, #12
    929c:	e50b0008 	str	r0, [fp, #-8]
    92a0:	e51b3008 	ldr	r3, [fp, #-8]
    92a4:	e1a03b23 	lsr	r3, r3, #22
    92a8:	e1a03b83 	lsl	r3, r3, #23
    92ac:	e1a03ba3 	lsr	r3, r3, #23
    92b0:	e59f2034 	ldr	r2, [pc, #52]	; 92ec <float32_is_signaling_nan+0x5c>
    92b4:	e1530002 	cmp	r3, r2
    92b8:	1a000006 	bne	92d8 <float32_is_signaling_nan+0x48>
    92bc:	e51b3008 	ldr	r3, [fp, #-8]
    92c0:	e3c334ff 	bic	r3, r3, #-16777216	; 0xff000000
    92c4:	e3c33503 	bic	r3, r3, #12582912	; 0xc00000
    92c8:	e3530000 	cmp	r3, #0
    92cc:	0a000001 	beq	92d8 <float32_is_signaling_nan+0x48>
    92d0:	e3a03001 	mov	r3, #1
    92d4:	ea000000 	b	92dc <float32_is_signaling_nan+0x4c>
    92d8:	e3a03000 	mov	r3, #0
    92dc:	e1a00003 	mov	r0, r3
    92e0:	e24bd000 	sub	sp, fp, #0
    92e4:	e49db004 	pop	{fp}		; (ldr fp, [sp], #4)
    92e8:	e12fff1e 	bx	lr
    92ec:	000001fe 	.word	0x000001fe

000092f0 <float32_is_nan>:
    92f0:	e52db004 	push	{fp}		; (str fp, [sp, #-4]!)
    92f4:	e28db000 	add	fp, sp, #0
    92f8:	e24dd00c 	sub	sp, sp, #12
    92fc:	e50b0008 	str	r0, [fp, #-8]
    9300:	e51b3008 	ldr	r3, [fp, #-8]
    9304:	e1a03083 	lsl	r3, r3, #1
    9308:	e35304ff 	cmp	r3, #-16777216	; 0xff000000
    930c:	83a03001 	movhi	r3, #1
    9310:	93a03000 	movls	r3, #0
    9314:	e6ef3073 	uxtb	r3, r3
    9318:	e1a00003 	mov	r0, r3
    931c:	e24bd000 	sub	sp, fp, #0
    9320:	e49db004 	pop	{fp}		; (ldr fp, [sp], #4)
    9324:	e12fff1e 	bx	lr

00009328 <extractFloat32Frac>:
    9328:	e52db004 	push	{fp}		; (str fp, [sp, #-4]!)
    932c:	e28db000 	add	fp, sp, #0
    9330:	e24dd00c 	sub	sp, sp, #12
    9334:	e50b0008 	str	r0, [fp, #-8]
    9338:	e51b3008 	ldr	r3, [fp, #-8]
    933c:	e3c334ff 	bic	r3, r3, #-16777216	; 0xff000000
    9340:	e3c33502 	bic	r3, r3, #8388608	; 0x800000
    9344:	e1a00003 	mov	r0, r3
    9348:	e24bd000 	sub	sp, fp, #0
    934c:	e49db004 	pop	{fp}		; (ldr fp, [sp], #4)
    9350:	e12fff1e 	bx	lr

00009354 <extractFloat32Exp>:
    9354:	e52db004 	push	{fp}		; (str fp, [sp, #-4]!)
    9358:	e28db000 	add	fp, sp, #0
    935c:	e24dd00c 	sub	sp, sp, #12
    9360:	e50b0008 	str	r0, [fp, #-8]
    9364:	e51b3008 	ldr	r3, [fp, #-8]
    9368:	e1a03ba3 	lsr	r3, r3, #23
    936c:	e6ef3073 	uxtb	r3, r3
    9370:	e1a00003 	mov	r0, r3
    9374:	e24bd000 	sub	sp, fp, #0
    9378:	e49db004 	pop	{fp}		; (ldr fp, [sp], #4)
    937c:	e12fff1e 	bx	lr

00009380 <extractFloat32Sign>:
    9380:	e52db004 	push	{fp}		; (str fp, [sp, #-4]!)
    9384:	e28db000 	add	fp, sp, #0
    9388:	e24dd00c 	sub	sp, sp, #12
    938c:	e50b0008 	str	r0, [fp, #-8]
    9390:	e51b3008 	ldr	r3, [fp, #-8]
    9394:	e1a03fa3 	lsr	r3, r3, #31
    9398:	e1a00003 	mov	r0, r3
    939c:	e24bd000 	sub	sp, fp, #0
    93a0:	e49db004 	pop	{fp}		; (ldr fp, [sp], #4)
    93a4:	e12fff1e 	bx	lr

000093a8 <propagateFloat32NaN>:
    93a8:	e92d4800 	push	{fp, lr}
    93ac:	e28db004 	add	fp, sp, #4
    93b0:	e24dd018 	sub	sp, sp, #24
    93b4:	e50b0018 	str	r0, [fp, #-24]	; 0xffffffe8
    93b8:	e50b101c 	str	r1, [fp, #-28]	; 0xffffffe4
    93bc:	e51b0018 	ldr	r0, [fp, #-24]	; 0xffffffe8
    93c0:	ebffffca 	bl	92f0 <float32_is_nan>
    93c4:	e50b0008 	str	r0, [fp, #-8]
    93c8:	e51b0018 	ldr	r0, [fp, #-24]	; 0xffffffe8
    93cc:	ebffffaf 	bl	9290 <float32_is_signaling_nan>
    93d0:	e50b000c 	str	r0, [fp, #-12]
    93d4:	e51b001c 	ldr	r0, [fp, #-28]	; 0xffffffe4
    93d8:	ebffffc4 	bl	92f0 <float32_is_nan>
    93dc:	e50b0010 	str	r0, [fp, #-16]
    93e0:	e51b001c 	ldr	r0, [fp, #-28]	; 0xffffffe4
    93e4:	ebffffa9 	bl	9290 <float32_is_signaling_nan>
    93e8:	e50b0014 	str	r0, [fp, #-20]	; 0xffffffec
    93ec:	e51b3018 	ldr	r3, [fp, #-24]	; 0xffffffe8
    93f0:	e3833501 	orr	r3, r3, #4194304	; 0x400000
    93f4:	e50b3018 	str	r3, [fp, #-24]	; 0xffffffe8
    93f8:	e51b301c 	ldr	r3, [fp, #-28]	; 0xffffffe4
    93fc:	e3833501 	orr	r3, r3, #4194304	; 0x400000
    9400:	e50b301c 	str	r3, [fp, #-28]	; 0xffffffe4
    9404:	e51b200c 	ldr	r2, [fp, #-12]
    9408:	e51b3014 	ldr	r3, [fp, #-20]	; 0xffffffec
    940c:	e1823003 	orr	r3, r2, r3
    9410:	e3530000 	cmp	r3, #0
    9414:	0a000001 	beq	9420 <propagateFloat32NaN+0x78>
    9418:	e3a00001 	mov	r0, #1
    941c:	eb0001bb 	bl	9b10 <float_raise>
    9420:	e51b300c 	ldr	r3, [fp, #-12]
    9424:	e3530000 	cmp	r3, #0
    9428:	0a00000a 	beq	9458 <propagateFloat32NaN+0xb0>
    942c:	e51b3014 	ldr	r3, [fp, #-20]	; 0xffffffec
    9430:	e3530000 	cmp	r3, #0
    9434:	0a000000 	beq	943c <propagateFloat32NaN+0x94>
    9438:	ea000015 	b	9494 <propagateFloat32NaN+0xec>
    943c:	e51b3010 	ldr	r3, [fp, #-16]
    9440:	e3530000 	cmp	r3, #0
    9444:	0a000001 	beq	9450 <propagateFloat32NaN+0xa8>
    9448:	e51b301c 	ldr	r3, [fp, #-28]	; 0xffffffe4
    944c:	ea000027 	b	94f0 <propagateFloat32NaN+0x148>
    9450:	e51b3018 	ldr	r3, [fp, #-24]	; 0xffffffe8
    9454:	ea000025 	b	94f0 <propagateFloat32NaN+0x148>
    9458:	e51b3008 	ldr	r3, [fp, #-8]
    945c:	e3530000 	cmp	r3, #0
    9460:	0a000021 	beq	94ec <propagateFloat32NaN+0x144>
    9464:	e51b3010 	ldr	r3, [fp, #-16]
    9468:	e3530000 	cmp	r3, #0
    946c:	03a03001 	moveq	r3, #1
    9470:	13a03000 	movne	r3, #0
    9474:	e6ef3073 	uxtb	r3, r3
    9478:	e1a02003 	mov	r2, r3
    947c:	e51b3014 	ldr	r3, [fp, #-20]	; 0xffffffec
    9480:	e1823003 	orr	r3, r2, r3
    9484:	e3530000 	cmp	r3, #0
    9488:	0a000001 	beq	9494 <propagateFloat32NaN+0xec>
    948c:	e51b3018 	ldr	r3, [fp, #-24]	; 0xffffffe8
    9490:	ea000016 	b	94f0 <propagateFloat32NaN+0x148>
    9494:	e51b3018 	ldr	r3, [fp, #-24]	; 0xffffffe8
    9498:	e1a02083 	lsl	r2, r3, #1
    949c:	e51b301c 	ldr	r3, [fp, #-28]	; 0xffffffe4
    94a0:	e1a03083 	lsl	r3, r3, #1
    94a4:	e1520003 	cmp	r2, r3
    94a8:	2a000001 	bcs	94b4 <propagateFloat32NaN+0x10c>
    94ac:	e51b301c 	ldr	r3, [fp, #-28]	; 0xffffffe4
    94b0:	ea00000e 	b	94f0 <propagateFloat32NaN+0x148>
    94b4:	e51b301c 	ldr	r3, [fp, #-28]	; 0xffffffe4
    94b8:	e1a02083 	lsl	r2, r3, #1
    94bc:	e51b3018 	ldr	r3, [fp, #-24]	; 0xffffffe8
    94c0:	e1a03083 	lsl	r3, r3, #1
    94c4:	e1520003 	cmp	r2, r3
    94c8:	2a000001 	bcs	94d4 <propagateFloat32NaN+0x12c>
    94cc:	e51b3018 	ldr	r3, [fp, #-24]	; 0xffffffe8
    94d0:	ea000006 	b	94f0 <propagateFloat32NaN+0x148>
    94d4:	e51b201c 	ldr	r2, [fp, #-28]	; 0xffffffe4
    94d8:	e51b3018 	ldr	r3, [fp, #-24]	; 0xffffffe8
    94dc:	e1520003 	cmp	r2, r3
    94e0:	31a03002 	movcc	r3, r2
    94e4:	21a03003 	movcs	r3, r3
    94e8:	ea000000 	b	94f0 <propagateFloat32NaN+0x148>
    94ec:	e51b301c 	ldr	r3, [fp, #-28]	; 0xffffffe4
    94f0:	e1a00003 	mov	r0, r3
    94f4:	e24bd004 	sub	sp, fp, #4
    94f8:	e8bd8800 	pop	{fp, pc}

000094fc <shift32RightJamming>:
    94fc:	e52db004 	push	{fp}		; (str fp, [sp, #-4]!)
    9500:	e28db000 	add	fp, sp, #0
    9504:	e24dd01c 	sub	sp, sp, #28
    9508:	e50b0010 	str	r0, [fp, #-16]
    950c:	e50b1014 	str	r1, [fp, #-20]	; 0xffffffec
    9510:	e50b2018 	str	r2, [fp, #-24]	; 0xffffffe8
    9514:	e51b3014 	ldr	r3, [fp, #-20]	; 0xffffffec
    9518:	e3530000 	cmp	r3, #0
    951c:	1a000002 	bne	952c <shift32RightJamming+0x30>
    9520:	e51b3010 	ldr	r3, [fp, #-16]
    9524:	e50b3008 	str	r3, [fp, #-8]
    9528:	ea000017 	b	958c <shift32RightJamming+0x90>
    952c:	e51b3014 	ldr	r3, [fp, #-20]	; 0xffffffec
    9530:	e353001f 	cmp	r3, #31
    9534:	ca00000e 	bgt	9574 <shift32RightJamming+0x78>
    9538:	e51b2010 	ldr	r2, [fp, #-16]
    953c:	e51b3014 	ldr	r3, [fp, #-20]	; 0xffffffec
    9540:	e1a03332 	lsr	r3, r2, r3
    9544:	e51b2014 	ldr	r2, [fp, #-20]	; 0xffffffec
    9548:	e2622000 	rsb	r2, r2, #0
    954c:	e202201f 	and	r2, r2, #31
    9550:	e51b1010 	ldr	r1, [fp, #-16]
    9554:	e1a02211 	lsl	r2, r1, r2
    9558:	e3520000 	cmp	r2, #0
    955c:	13a02001 	movne	r2, #1
    9560:	03a02000 	moveq	r2, #0
    9564:	e6ef2072 	uxtb	r2, r2
    9568:	e1833002 	orr	r3, r3, r2
    956c:	e50b3008 	str	r3, [fp, #-8]
    9570:	ea000005 	b	958c <shift32RightJamming+0x90>
    9574:	e51b3010 	ldr	r3, [fp, #-16]
    9578:	e3530000 	cmp	r3, #0
    957c:	13a03001 	movne	r3, #1
    9580:	03a03000 	moveq	r3, #0
    9584:	e6ef3073 	uxtb	r3, r3
    9588:	e50b3008 	str	r3, [fp, #-8]
    958c:	e51b3018 	ldr	r3, [fp, #-24]	; 0xffffffe8
    9590:	e51b2008 	ldr	r2, [fp, #-8]
    9594:	e5832000 	str	r2, [r3]
    9598:	e24bd000 	sub	sp, fp, #0
    959c:	e49db004 	pop	{fp}		; (ldr fp, [sp], #4)
    95a0:	e12fff1e 	bx	lr

000095a4 <packFloat32>:
    95a4:	e52db004 	push	{fp}		; (str fp, [sp, #-4]!)
    95a8:	e28db000 	add	fp, sp, #0
    95ac:	e24dd014 	sub	sp, sp, #20
    95b0:	e50b0008 	str	r0, [fp, #-8]
    95b4:	e50b100c 	str	r1, [fp, #-12]
    95b8:	e50b2010 	str	r2, [fp, #-16]
    95bc:	e51b3008 	ldr	r3, [fp, #-8]
    95c0:	e1a02f83 	lsl	r2, r3, #31
    95c4:	e51b300c 	ldr	r3, [fp, #-12]
    95c8:	e1a03b83 	lsl	r3, r3, #23
    95cc:	e0822003 	add	r2, r2, r3
    95d0:	e51b3010 	ldr	r3, [fp, #-16]
    95d4:	e0823003 	add	r3, r2, r3
    95d8:	e1a00003 	mov	r0, r3
    95dc:	e24bd000 	sub	sp, fp, #0
    95e0:	e49db004 	pop	{fp}		; (ldr fp, [sp], #4)
    95e4:	e12fff1e 	bx	lr

000095e8 <roundAndPackFloat32>:
    95e8:	e92d4800 	push	{fp, lr}
    95ec:	e28db004 	add	fp, sp, #4
    95f0:	e24dd028 	sub	sp, sp, #40	; 0x28
    95f4:	e50b0020 	str	r0, [fp, #-32]	; 0xffffffe0
    95f8:	e50b1024 	str	r1, [fp, #-36]	; 0xffffffdc
    95fc:	e50b2028 	str	r2, [fp, #-40]	; 0xffffffd8
    9600:	e59f3250 	ldr	r3, [pc, #592]	; 9858 <roundAndPackFloat32+0x270>
    9604:	e5d33000 	ldrb	r3, [r3]
    9608:	e6af3073 	sxtb	r3, r3
    960c:	e50b3010 	str	r3, [fp, #-16]
    9610:	e51b3010 	ldr	r3, [fp, #-16]
    9614:	e3530000 	cmp	r3, #0
    9618:	03a03001 	moveq	r3, #1
    961c:	13a03000 	movne	r3, #0
    9620:	e6ef3073 	uxtb	r3, r3
    9624:	e50b3014 	str	r3, [fp, #-20]	; 0xffffffec
    9628:	e3a03040 	mov	r3, #64	; 0x40
    962c:	e50b3008 	str	r3, [fp, #-8]
    9630:	e51b3014 	ldr	r3, [fp, #-20]	; 0xffffffec
    9634:	e3530000 	cmp	r3, #0
    9638:	1a000015 	bne	9694 <roundAndPackFloat32+0xac>
    963c:	e51b3010 	ldr	r3, [fp, #-16]
    9640:	e3530003 	cmp	r3, #3
    9644:	1a000002 	bne	9654 <roundAndPackFloat32+0x6c>
    9648:	e3a03000 	mov	r3, #0
    964c:	e50b3008 	str	r3, [fp, #-8]
    9650:	ea00000f 	b	9694 <roundAndPackFloat32+0xac>
    9654:	e3a0307f 	mov	r3, #127	; 0x7f
    9658:	e50b3008 	str	r3, [fp, #-8]
    965c:	e51b3020 	ldr	r3, [fp, #-32]	; 0xffffffe0
    9660:	e3530000 	cmp	r3, #0
    9664:	0a000005 	beq	9680 <roundAndPackFloat32+0x98>
    9668:	e51b3010 	ldr	r3, [fp, #-16]
    966c:	e3530002 	cmp	r3, #2
    9670:	1a000007 	bne	9694 <roundAndPackFloat32+0xac>
    9674:	e3a03000 	mov	r3, #0
    9678:	e50b3008 	str	r3, [fp, #-8]
    967c:	ea000004 	b	9694 <roundAndPackFloat32+0xac>
    9680:	e51b3010 	ldr	r3, [fp, #-16]
    9684:	e3530001 	cmp	r3, #1
    9688:	1a000001 	bne	9694 <roundAndPackFloat32+0xac>
    968c:	e3a03000 	mov	r3, #0
    9690:	e50b3008 	str	r3, [fp, #-8]
    9694:	e51b3028 	ldr	r3, [fp, #-40]	; 0xffffffd8
    9698:	e203307f 	and	r3, r3, #127	; 0x7f
    969c:	e50b300c 	str	r3, [fp, #-12]
    96a0:	e51b3024 	ldr	r3, [fp, #-36]	; 0xffffffdc
    96a4:	e6ff3073 	uxth	r3, r3
    96a8:	e35300fc 	cmp	r3, #252	; 0xfc
    96ac:	9a000040 	bls	97b4 <roundAndPackFloat32+0x1cc>
    96b0:	e51b3024 	ldr	r3, [fp, #-36]	; 0xffffffdc
    96b4:	e35300fd 	cmp	r3, #253	; 0xfd
    96b8:	ca000007 	bgt	96dc <roundAndPackFloat32+0xf4>
    96bc:	e51b3024 	ldr	r3, [fp, #-36]	; 0xffffffdc
    96c0:	e35300fd 	cmp	r3, #253	; 0xfd
    96c4:	1a000012 	bne	9714 <roundAndPackFloat32+0x12c>
    96c8:	e51b2028 	ldr	r2, [fp, #-40]	; 0xffffffd8
    96cc:	e51b3008 	ldr	r3, [fp, #-8]
    96d0:	e0823003 	add	r3, r2, r3
    96d4:	e3530000 	cmp	r3, #0
    96d8:	aa00000d 	bge	9714 <roundAndPackFloat32+0x12c>
    96dc:	e3a00028 	mov	r0, #40	; 0x28
    96e0:	eb00010a 	bl	9b10 <float_raise>
    96e4:	e51b0020 	ldr	r0, [fp, #-32]	; 0xffffffe0
    96e8:	e3a010ff 	mov	r1, #255	; 0xff
    96ec:	e3a02000 	mov	r2, #0
    96f0:	ebffffab 	bl	95a4 <packFloat32>
    96f4:	e1a02000 	mov	r2, r0
    96f8:	e51b3008 	ldr	r3, [fp, #-8]
    96fc:	e3530000 	cmp	r3, #0
    9700:	03a03001 	moveq	r3, #1
    9704:	13a03000 	movne	r3, #0
    9708:	e6ef3073 	uxtb	r3, r3
    970c:	e0633002 	rsb	r3, r3, r2
    9710:	ea00004d 	b	984c <roundAndPackFloat32+0x264>
    9714:	e51b3024 	ldr	r3, [fp, #-36]	; 0xffffffdc
    9718:	e3530000 	cmp	r3, #0
    971c:	aa000024 	bge	97b4 <roundAndPackFloat32+0x1cc>
    9720:	e59f3134 	ldr	r3, [pc, #308]	; 985c <roundAndPackFloat32+0x274>
    9724:	e5933000 	ldr	r3, [r3]
    9728:	e3530001 	cmp	r3, #1
    972c:	0a000007 	beq	9750 <roundAndPackFloat32+0x168>
    9730:	e51b3024 	ldr	r3, [fp, #-36]	; 0xffffffdc
    9734:	e3730001 	cmn	r3, #1
    9738:	ba000004 	blt	9750 <roundAndPackFloat32+0x168>
    973c:	e51b2028 	ldr	r2, [fp, #-40]	; 0xffffffd8
    9740:	e51b3008 	ldr	r3, [fp, #-8]
    9744:	e0823003 	add	r3, r2, r3
    9748:	e3530000 	cmp	r3, #0
    974c:	ba000001 	blt	9758 <roundAndPackFloat32+0x170>
    9750:	e3a03001 	mov	r3, #1
    9754:	ea000000 	b	975c <roundAndPackFloat32+0x174>
    9758:	e3a03000 	mov	r3, #0
    975c:	e50b3018 	str	r3, [fp, #-24]	; 0xffffffe8
    9760:	e51b1028 	ldr	r1, [fp, #-40]	; 0xffffffd8
    9764:	e51b3024 	ldr	r3, [fp, #-36]	; 0xffffffdc
    9768:	e2632000 	rsb	r2, r3, #0
    976c:	e24b3028 	sub	r3, fp, #40	; 0x28
    9770:	e1a00001 	mov	r0, r1
    9774:	e1a01002 	mov	r1, r2
    9778:	e1a02003 	mov	r2, r3
    977c:	ebffff5e 	bl	94fc <shift32RightJamming>
    9780:	e3a03000 	mov	r3, #0
    9784:	e50b3024 	str	r3, [fp, #-36]	; 0xffffffdc
    9788:	e51b3028 	ldr	r3, [fp, #-40]	; 0xffffffd8
    978c:	e203307f 	and	r3, r3, #127	; 0x7f
    9790:	e50b300c 	str	r3, [fp, #-12]
    9794:	e51b3018 	ldr	r3, [fp, #-24]	; 0xffffffe8
    9798:	e3530000 	cmp	r3, #0
    979c:	0a000004 	beq	97b4 <roundAndPackFloat32+0x1cc>
    97a0:	e51b300c 	ldr	r3, [fp, #-12]
    97a4:	e3530000 	cmp	r3, #0
    97a8:	0a000001 	beq	97b4 <roundAndPackFloat32+0x1cc>
    97ac:	e3a00010 	mov	r0, #16
    97b0:	eb0000d6 	bl	9b10 <float_raise>
    97b4:	e51b300c 	ldr	r3, [fp, #-12]
    97b8:	e3530000 	cmp	r3, #0
    97bc:	0a000005 	beq	97d8 <roundAndPackFloat32+0x1f0>
    97c0:	e59f3098 	ldr	r3, [pc, #152]	; 9860 <roundAndPackFloat32+0x278>
    97c4:	e5d33000 	ldrb	r3, [r3]
    97c8:	e3833020 	orr	r3, r3, #32
    97cc:	e6ef2073 	uxtb	r2, r3
    97d0:	e59f3088 	ldr	r3, [pc, #136]	; 9860 <roundAndPackFloat32+0x278>
    97d4:	e5c32000 	strb	r2, [r3]
    97d8:	e51b2028 	ldr	r2, [fp, #-40]	; 0xffffffd8
    97dc:	e51b3008 	ldr	r3, [fp, #-8]
    97e0:	e0823003 	add	r3, r2, r3
    97e4:	e1a033a3 	lsr	r3, r3, #7
    97e8:	e50b3028 	str	r3, [fp, #-40]	; 0xffffffd8
    97ec:	e51b300c 	ldr	r3, [fp, #-12]
    97f0:	e3530040 	cmp	r3, #64	; 0x40
    97f4:	03a03001 	moveq	r3, #1
    97f8:	13a03000 	movne	r3, #0
    97fc:	e6ef3073 	uxtb	r3, r3
    9800:	e1a02003 	mov	r2, r3
    9804:	e51b3014 	ldr	r3, [fp, #-20]	; 0xffffffec
    9808:	e0033002 	and	r3, r3, r2
    980c:	e1e03003 	mvn	r3, r3
    9810:	e1a02003 	mov	r2, r3
    9814:	e51b3028 	ldr	r3, [fp, #-40]	; 0xffffffd8
    9818:	e0033002 	and	r3, r3, r2
    981c:	e50b3028 	str	r3, [fp, #-40]	; 0xffffffd8
    9820:	e51b3028 	ldr	r3, [fp, #-40]	; 0xffffffd8
    9824:	e3530000 	cmp	r3, #0
    9828:	1a000001 	bne	9834 <roundAndPackFloat32+0x24c>
    982c:	e3a03000 	mov	r3, #0
    9830:	e50b3024 	str	r3, [fp, #-36]	; 0xffffffdc
    9834:	e51b3028 	ldr	r3, [fp, #-40]	; 0xffffffd8
    9838:	e51b0020 	ldr	r0, [fp, #-32]	; 0xffffffe0
    983c:	e51b1024 	ldr	r1, [fp, #-36]	; 0xffffffdc
    9840:	e1a02003 	mov	r2, r3
    9844:	ebffff56 	bl	95a4 <packFloat32>
    9848:	e1a03000 	mov	r3, r0
    984c:	e1a00003 	mov	r0, r3
    9850:	e24bd004 	sub	sp, fp, #4
    9854:	e8bd8800 	pop	{fp, pc}
    9858:	0000b051 	.word	0x0000b051
    985c:	0000b04c 	.word	0x0000b04c
    9860:	0000b050 	.word	0x0000b050

00009864 <addFloat32Sigs>:
    9864:	e92d4800 	push	{fp, lr}
    9868:	e28db004 	add	fp, sp, #4
    986c:	e24dd030 	sub	sp, sp, #48	; 0x30
    9870:	e50b0028 	str	r0, [fp, #-40]	; 0xffffffd8
    9874:	e50b102c 	str	r1, [fp, #-44]	; 0xffffffd4
    9878:	e50b2030 	str	r2, [fp, #-48]	; 0xffffffd0
    987c:	e51b0028 	ldr	r0, [fp, #-40]	; 0xffffffd8
    9880:	ebfffea8 	bl	9328 <extractFloat32Frac>
    9884:	e1a03000 	mov	r3, r0
    9888:	e50b301c 	str	r3, [fp, #-28]	; 0xffffffe4
    988c:	e51b0028 	ldr	r0, [fp, #-40]	; 0xffffffd8
    9890:	ebfffeaf 	bl	9354 <extractFloat32Exp>
    9894:	e50b0014 	str	r0, [fp, #-20]	; 0xffffffec
    9898:	e51b002c 	ldr	r0, [fp, #-44]	; 0xffffffd4
    989c:	ebfffea1 	bl	9328 <extractFloat32Frac>
    98a0:	e1a03000 	mov	r3, r0
    98a4:	e50b3020 	str	r3, [fp, #-32]	; 0xffffffe0
    98a8:	e51b002c 	ldr	r0, [fp, #-44]	; 0xffffffd4
    98ac:	ebfffea8 	bl	9354 <extractFloat32Exp>
    98b0:	e50b0018 	str	r0, [fp, #-24]	; 0xffffffe8
    98b4:	e51b2014 	ldr	r2, [fp, #-20]	; 0xffffffec
    98b8:	e51b3018 	ldr	r3, [fp, #-24]	; 0xffffffe8
    98bc:	e0633002 	rsb	r3, r3, r2
    98c0:	e50b3010 	str	r3, [fp, #-16]
    98c4:	e51b301c 	ldr	r3, [fp, #-28]	; 0xffffffe4
    98c8:	e1a03303 	lsl	r3, r3, #6
    98cc:	e50b301c 	str	r3, [fp, #-28]	; 0xffffffe4
    98d0:	e51b3020 	ldr	r3, [fp, #-32]	; 0xffffffe0
    98d4:	e1a03303 	lsl	r3, r3, #6
    98d8:	e50b3020 	str	r3, [fp, #-32]	; 0xffffffe0
    98dc:	e51b3010 	ldr	r3, [fp, #-16]
    98e0:	e3530000 	cmp	r3, #0
    98e4:	da00001f 	ble	9968 <addFloat32Sigs+0x104>
    98e8:	e51b3014 	ldr	r3, [fp, #-20]	; 0xffffffec
    98ec:	e35300ff 	cmp	r3, #255	; 0xff
    98f0:	1a000009 	bne	991c <addFloat32Sigs+0xb8>
    98f4:	e51b301c 	ldr	r3, [fp, #-28]	; 0xffffffe4
    98f8:	e3530000 	cmp	r3, #0
    98fc:	0a000004 	beq	9914 <addFloat32Sigs+0xb0>
    9900:	e51b0028 	ldr	r0, [fp, #-40]	; 0xffffffd8
    9904:	e51b102c 	ldr	r1, [fp, #-44]	; 0xffffffd4
    9908:	ebfffea6 	bl	93a8 <propagateFloat32NaN>
    990c:	e1a03000 	mov	r3, r0
    9910:	ea00007b 	b	9b04 <addFloat32Sigs+0x2a0>
    9914:	e51b3028 	ldr	r3, [fp, #-40]	; 0xffffffd8
    9918:	ea000079 	b	9b04 <addFloat32Sigs+0x2a0>
    991c:	e51b3018 	ldr	r3, [fp, #-24]	; 0xffffffe8
    9920:	e3530000 	cmp	r3, #0
    9924:	1a000003 	bne	9938 <addFloat32Sigs+0xd4>
    9928:	e51b3010 	ldr	r3, [fp, #-16]
    992c:	e2433001 	sub	r3, r3, #1
    9930:	e50b3010 	str	r3, [fp, #-16]
    9934:	ea000002 	b	9944 <addFloat32Sigs+0xe0>
    9938:	e51b3020 	ldr	r3, [fp, #-32]	; 0xffffffe0
    993c:	e3833202 	orr	r3, r3, #536870912	; 0x20000000
    9940:	e50b3020 	str	r3, [fp, #-32]	; 0xffffffe0
    9944:	e51b2020 	ldr	r2, [fp, #-32]	; 0xffffffe0
    9948:	e24b3020 	sub	r3, fp, #32
    994c:	e1a00002 	mov	r0, r2
    9950:	e51b1010 	ldr	r1, [fp, #-16]
    9954:	e1a02003 	mov	r2, r3
    9958:	ebfffee7 	bl	94fc <shift32RightJamming>
    995c:	e51b3014 	ldr	r3, [fp, #-20]	; 0xffffffec
    9960:	e50b3008 	str	r3, [fp, #-8]
    9964:	ea00004c 	b	9a9c <addFloat32Sigs+0x238>
    9968:	e51b3010 	ldr	r3, [fp, #-16]
    996c:	e3530000 	cmp	r3, #0
    9970:	aa000025 	bge	9a0c <addFloat32Sigs+0x1a8>
    9974:	e51b3018 	ldr	r3, [fp, #-24]	; 0xffffffe8
    9978:	e35300ff 	cmp	r3, #255	; 0xff
    997c:	1a00000d 	bne	99b8 <addFloat32Sigs+0x154>
    9980:	e51b3020 	ldr	r3, [fp, #-32]	; 0xffffffe0
    9984:	e3530000 	cmp	r3, #0
    9988:	0a000004 	beq	99a0 <addFloat32Sigs+0x13c>
    998c:	e51b0028 	ldr	r0, [fp, #-40]	; 0xffffffd8
    9990:	e51b102c 	ldr	r1, [fp, #-44]	; 0xffffffd4
    9994:	ebfffe83 	bl	93a8 <propagateFloat32NaN>
    9998:	e1a03000 	mov	r3, r0
    999c:	ea000058 	b	9b04 <addFloat32Sigs+0x2a0>
    99a0:	e51b0030 	ldr	r0, [fp, #-48]	; 0xffffffd0
    99a4:	e3a010ff 	mov	r1, #255	; 0xff
    99a8:	e3a02000 	mov	r2, #0
    99ac:	ebfffefc 	bl	95a4 <packFloat32>
    99b0:	e1a03000 	mov	r3, r0
    99b4:	ea000052 	b	9b04 <addFloat32Sigs+0x2a0>
    99b8:	e51b3014 	ldr	r3, [fp, #-20]	; 0xffffffec
    99bc:	e3530000 	cmp	r3, #0
    99c0:	1a000003 	bne	99d4 <addFloat32Sigs+0x170>
    99c4:	e51b3010 	ldr	r3, [fp, #-16]
    99c8:	e2833001 	add	r3, r3, #1
    99cc:	e50b3010 	str	r3, [fp, #-16]
    99d0:	ea000002 	b	99e0 <addFloat32Sigs+0x17c>
    99d4:	e51b301c 	ldr	r3, [fp, #-28]	; 0xffffffe4
    99d8:	e3833202 	orr	r3, r3, #536870912	; 0x20000000
    99dc:	e50b301c 	str	r3, [fp, #-28]	; 0xffffffe4
    99e0:	e51b101c 	ldr	r1, [fp, #-28]	; 0xffffffe4
    99e4:	e51b3010 	ldr	r3, [fp, #-16]
    99e8:	e2632000 	rsb	r2, r3, #0
    99ec:	e24b301c 	sub	r3, fp, #28
    99f0:	e1a00001 	mov	r0, r1
    99f4:	e1a01002 	mov	r1, r2
    99f8:	e1a02003 	mov	r2, r3
    99fc:	ebfffebe 	bl	94fc <shift32RightJamming>
    9a00:	e51b3018 	ldr	r3, [fp, #-24]	; 0xffffffe8
    9a04:	e50b3008 	str	r3, [fp, #-8]
    9a08:	ea000023 	b	9a9c <addFloat32Sigs+0x238>
    9a0c:	e51b3014 	ldr	r3, [fp, #-20]	; 0xffffffec
    9a10:	e35300ff 	cmp	r3, #255	; 0xff
    9a14:	1a00000b 	bne	9a48 <addFloat32Sigs+0x1e4>
    9a18:	e51b201c 	ldr	r2, [fp, #-28]	; 0xffffffe4
    9a1c:	e51b3020 	ldr	r3, [fp, #-32]	; 0xffffffe0
    9a20:	e1823003 	orr	r3, r2, r3
    9a24:	e3530000 	cmp	r3, #0
    9a28:	0a000004 	beq	9a40 <addFloat32Sigs+0x1dc>
    9a2c:	e51b0028 	ldr	r0, [fp, #-40]	; 0xffffffd8
    9a30:	e51b102c 	ldr	r1, [fp, #-44]	; 0xffffffd4
    9a34:	ebfffe5b 	bl	93a8 <propagateFloat32NaN>
    9a38:	e1a03000 	mov	r3, r0
    9a3c:	ea000030 	b	9b04 <addFloat32Sigs+0x2a0>
    9a40:	e51b3028 	ldr	r3, [fp, #-40]	; 0xffffffd8
    9a44:	ea00002e 	b	9b04 <addFloat32Sigs+0x2a0>
    9a48:	e51b3014 	ldr	r3, [fp, #-20]	; 0xffffffec
    9a4c:	e3530000 	cmp	r3, #0
    9a50:	1a000009 	bne	9a7c <addFloat32Sigs+0x218>
    9a54:	e51b201c 	ldr	r2, [fp, #-28]	; 0xffffffe4
    9a58:	e51b3020 	ldr	r3, [fp, #-32]	; 0xffffffe0
    9a5c:	e0823003 	add	r3, r2, r3
    9a60:	e1a03323 	lsr	r3, r3, #6
    9a64:	e51b0030 	ldr	r0, [fp, #-48]	; 0xffffffd0
    9a68:	e3a01000 	mov	r1, #0
    9a6c:	e1a02003 	mov	r2, r3
    9a70:	ebfffecb 	bl	95a4 <packFloat32>
    9a74:	e1a03000 	mov	r3, r0
    9a78:	ea000021 	b	9b04 <addFloat32Sigs+0x2a0>
    9a7c:	e51b201c 	ldr	r2, [fp, #-28]	; 0xffffffe4
    9a80:	e51b3020 	ldr	r3, [fp, #-32]	; 0xffffffe0
    9a84:	e0823003 	add	r3, r2, r3
    9a88:	e2833101 	add	r3, r3, #1073741824	; 0x40000000
    9a8c:	e50b300c 	str	r3, [fp, #-12]
    9a90:	e51b3014 	ldr	r3, [fp, #-20]	; 0xffffffec
    9a94:	e50b3008 	str	r3, [fp, #-8]
    9a98:	ea000014 	b	9af0 <addFloat32Sigs+0x28c>
    9a9c:	e51b301c 	ldr	r3, [fp, #-28]	; 0xffffffe4
    9aa0:	e3833202 	orr	r3, r3, #536870912	; 0x20000000
    9aa4:	e50b301c 	str	r3, [fp, #-28]	; 0xffffffe4
    9aa8:	e51b201c 	ldr	r2, [fp, #-28]	; 0xffffffe4
    9aac:	e51b3020 	ldr	r3, [fp, #-32]	; 0xffffffe0
    9ab0:	e0823003 	add	r3, r2, r3
    9ab4:	e1a03083 	lsl	r3, r3, #1
    9ab8:	e50b300c 	str	r3, [fp, #-12]
    9abc:	e51b3008 	ldr	r3, [fp, #-8]
    9ac0:	e2433001 	sub	r3, r3, #1
    9ac4:	e50b3008 	str	r3, [fp, #-8]
    9ac8:	e51b300c 	ldr	r3, [fp, #-12]
    9acc:	e3530000 	cmp	r3, #0
    9ad0:	aa000006 	bge	9af0 <addFloat32Sigs+0x28c>
    9ad4:	e51b201c 	ldr	r2, [fp, #-28]	; 0xffffffe4
    9ad8:	e51b3020 	ldr	r3, [fp, #-32]	; 0xffffffe0
    9adc:	e0823003 	add	r3, r2, r3
    9ae0:	e50b300c 	str	r3, [fp, #-12]
    9ae4:	e51b3008 	ldr	r3, [fp, #-8]
    9ae8:	e2833001 	add	r3, r3, #1
    9aec:	e50b3008 	str	r3, [fp, #-8]
    9af0:	e51b0030 	ldr	r0, [fp, #-48]	; 0xffffffd0
    9af4:	e51b1008 	ldr	r1, [fp, #-8]
    9af8:	e51b200c 	ldr	r2, [fp, #-12]
    9afc:	ebfffeb9 	bl	95e8 <roundAndPackFloat32>
    9b00:	e1a03000 	mov	r3, r0
    9b04:	e1a00003 	mov	r0, r3
    9b08:	e24bd004 	sub	sp, fp, #4
    9b0c:	e8bd8800 	pop	{fp, pc}

00009b10 <float_raise>:
    9b10:	e52db004 	push	{fp}		; (str fp, [sp, #-4]!)
    9b14:	e28db000 	add	fp, sp, #0
    9b18:	e24dd00c 	sub	sp, sp, #12
    9b1c:	e50b0008 	str	r0, [fp, #-8]
    9b20:	e51b3008 	ldr	r3, [fp, #-8]
    9b24:	e6ef2073 	uxtb	r2, r3
    9b28:	e59f301c 	ldr	r3, [pc, #28]	; 9b4c <float_raise+0x3c>
    9b2c:	e5d33000 	ldrb	r3, [r3]
    9b30:	e1823003 	orr	r3, r2, r3
    9b34:	e6ef2073 	uxtb	r2, r3
    9b38:	e59f300c 	ldr	r3, [pc, #12]	; 9b4c <float_raise+0x3c>
    9b3c:	e5c32000 	strb	r2, [r3]
    9b40:	e24bd000 	sub	sp, fp, #0
    9b44:	e49db004 	pop	{fp}		; (ldr fp, [sp], #4)
    9b48:	e12fff1e 	bx	lr
    9b4c:	0000b050 	.word	0x0000b050

00009b50 <countLeadingZeros32>:
    9b50:	e52db004 	push	{fp}		; (str fp, [sp, #-4]!)
    9b54:	e28db000 	add	fp, sp, #0
    9b58:	e24dd014 	sub	sp, sp, #20
    9b5c:	e50b0010 	str	r0, [fp, #-16]
    9b60:	e3a03000 	mov	r3, #0
    9b64:	e50b3008 	str	r3, [fp, #-8]
    9b68:	e51b3010 	ldr	r3, [fp, #-16]
    9b6c:	e3530801 	cmp	r3, #65536	; 0x10000
    9b70:	2a000005 	bcs	9b8c <countLeadingZeros32+0x3c>
    9b74:	e51b3008 	ldr	r3, [fp, #-8]
    9b78:	e2833010 	add	r3, r3, #16
    9b7c:	e50b3008 	str	r3, [fp, #-8]
    9b80:	e51b3010 	ldr	r3, [fp, #-16]
    9b84:	e1a03803 	lsl	r3, r3, #16
    9b88:	e50b3010 	str	r3, [fp, #-16]
    9b8c:	e51b3010 	ldr	r3, [fp, #-16]
    9b90:	e3530401 	cmp	r3, #16777216	; 0x1000000
    9b94:	2a000005 	bcs	9bb0 <countLeadingZeros32+0x60>
    9b98:	e51b3008 	ldr	r3, [fp, #-8]
    9b9c:	e2833008 	add	r3, r3, #8
    9ba0:	e50b3008 	str	r3, [fp, #-8]
    9ba4:	e51b3010 	ldr	r3, [fp, #-16]
    9ba8:	e1a03403 	lsl	r3, r3, #8
    9bac:	e50b3010 	str	r3, [fp, #-16]
    9bb0:	e51b3010 	ldr	r3, [fp, #-16]
    9bb4:	e1a03c23 	lsr	r3, r3, #24
    9bb8:	e59f2020 	ldr	r2, [pc, #32]	; 9be0 <countLeadingZeros32+0x90>
    9bbc:	e7923103 	ldr	r3, [r2, r3, lsl #2]
    9bc0:	e51b2008 	ldr	r2, [fp, #-8]
    9bc4:	e0823003 	add	r3, r2, r3
    9bc8:	e50b3008 	str	r3, [fp, #-8]
    9bcc:	e51b3008 	ldr	r3, [fp, #-8]
    9bd0:	e1a00003 	mov	r0, r3
    9bd4:	e24bd000 	sub	sp, fp, #0
    9bd8:	e49db004 	pop	{fp}		; (ldr fp, [sp], #4)
    9bdc:	e12fff1e 	bx	lr
    9be0:	0000ac14 	.word	0x0000ac14

00009be4 <normalizeRoundAndPackFloat32>:
    9be4:	e92d4800 	push	{fp, lr}
    9be8:	e28db004 	add	fp, sp, #4
    9bec:	e24dd018 	sub	sp, sp, #24
    9bf0:	e50b0010 	str	r0, [fp, #-16]
    9bf4:	e50b1014 	str	r1, [fp, #-20]	; 0xffffffec
    9bf8:	e50b2018 	str	r2, [fp, #-24]	; 0xffffffe8
    9bfc:	e51b0018 	ldr	r0, [fp, #-24]	; 0xffffffe8
    9c00:	ebffffd2 	bl	9b50 <countLeadingZeros32>
    9c04:	e1a03000 	mov	r3, r0
    9c08:	e2433001 	sub	r3, r3, #1
    9c0c:	e50b3008 	str	r3, [fp, #-8]
    9c10:	e51b2014 	ldr	r2, [fp, #-20]	; 0xffffffec
    9c14:	e51b3008 	ldr	r3, [fp, #-8]
    9c18:	e0631002 	rsb	r1, r3, r2
    9c1c:	e51b2018 	ldr	r2, [fp, #-24]	; 0xffffffe8
    9c20:	e51b3008 	ldr	r3, [fp, #-8]
    9c24:	e1a03312 	lsl	r3, r2, r3
    9c28:	e51b0010 	ldr	r0, [fp, #-16]
    9c2c:	e1a02003 	mov	r2, r3
    9c30:	ebfffe6c 	bl	95e8 <roundAndPackFloat32>
    9c34:	e1a03000 	mov	r3, r0
    9c38:	e1a00003 	mov	r0, r3
    9c3c:	e24bd004 	sub	sp, fp, #4
    9c40:	e8bd8800 	pop	{fp, pc}

00009c44 <subFloat32Sigs>:
    9c44:	e92d4800 	push	{fp, lr}
    9c48:	e28db004 	add	fp, sp, #4
    9c4c:	e24dd030 	sub	sp, sp, #48	; 0x30
    9c50:	e50b0028 	str	r0, [fp, #-40]	; 0xffffffd8
    9c54:	e50b102c 	str	r1, [fp, #-44]	; 0xffffffd4
    9c58:	e50b2030 	str	r2, [fp, #-48]	; 0xffffffd0
    9c5c:	e59f32d0 	ldr	r3, [pc, #720]	; 9f34 <subFloat32Sigs+0x2f0>
    9c60:	e50b301c 	str	r3, [fp, #-28]	; 0xffffffe4
    9c64:	e51b0028 	ldr	r0, [fp, #-40]	; 0xffffffd8
    9c68:	ebfffdae 	bl	9328 <extractFloat32Frac>
    9c6c:	e1a03000 	mov	r3, r0
    9c70:	e50b3020 	str	r3, [fp, #-32]	; 0xffffffe0
    9c74:	e51b0028 	ldr	r0, [fp, #-40]	; 0xffffffd8
    9c78:	ebfffdb5 	bl	9354 <extractFloat32Exp>
    9c7c:	e50b0008 	str	r0, [fp, #-8]
    9c80:	e51b002c 	ldr	r0, [fp, #-44]	; 0xffffffd4
    9c84:	ebfffda7 	bl	9328 <extractFloat32Frac>
    9c88:	e1a03000 	mov	r3, r0
    9c8c:	e50b3024 	str	r3, [fp, #-36]	; 0xffffffdc
    9c90:	e51b002c 	ldr	r0, [fp, #-44]	; 0xffffffd4
    9c94:	ebfffdae 	bl	9354 <extractFloat32Exp>
    9c98:	e50b000c 	str	r0, [fp, #-12]
    9c9c:	e51b2008 	ldr	r2, [fp, #-8]
    9ca0:	e51b300c 	ldr	r3, [fp, #-12]
    9ca4:	e0633002 	rsb	r3, r3, r2
    9ca8:	e50b3018 	str	r3, [fp, #-24]	; 0xffffffe8
    9cac:	e51b3020 	ldr	r3, [fp, #-32]	; 0xffffffe0
    9cb0:	e1a03383 	lsl	r3, r3, #7
    9cb4:	e50b3020 	str	r3, [fp, #-32]	; 0xffffffe0
    9cb8:	e51b3024 	ldr	r3, [fp, #-36]	; 0xffffffdc
    9cbc:	e1a03383 	lsl	r3, r3, #7
    9cc0:	e50b3024 	str	r3, [fp, #-36]	; 0xffffffdc
    9cc4:	e51b3018 	ldr	r3, [fp, #-24]	; 0xffffffe8
    9cc8:	e3530000 	cmp	r3, #0
    9ccc:	da000004 	ble	9ce4 <subFloat32Sigs+0xa0>
    9cd0:	e1a00000 	nop			; (mov r0, r0)
    9cd4:	e51b3008 	ldr	r3, [fp, #-8]
    9cd8:	e35300ff 	cmp	r3, #255	; 0xff
    9cdc:	1a000070 	bne	9ea4 <subFloat32Sigs+0x260>
    9ce0:	ea000065 	b	9e7c <subFloat32Sigs+0x238>
    9ce4:	e51b3018 	ldr	r3, [fp, #-24]	; 0xffffffe8
    9ce8:	e3530000 	cmp	r3, #0
    9cec:	aa000004 	bge	9d04 <subFloat32Sigs+0xc0>
    9cf0:	e1a00000 	nop			; (mov r0, r0)
    9cf4:	e51b300c 	ldr	r3, [fp, #-12]
    9cf8:	e35300ff 	cmp	r3, #255	; 0xff
    9cfc:	1a00003f 	bne	9e00 <subFloat32Sigs+0x1bc>
    9d00:	ea00002e 	b	9dc0 <subFloat32Sigs+0x17c>
    9d04:	e51b3008 	ldr	r3, [fp, #-8]
    9d08:	e35300ff 	cmp	r3, #255	; 0xff
    9d0c:	1a00000d 	bne	9d48 <subFloat32Sigs+0x104>
    9d10:	e51b2020 	ldr	r2, [fp, #-32]	; 0xffffffe0
    9d14:	e51b3024 	ldr	r3, [fp, #-36]	; 0xffffffdc
    9d18:	e1823003 	orr	r3, r2, r3
    9d1c:	e3530000 	cmp	r3, #0
    9d20:	0a000004 	beq	9d38 <subFloat32Sigs+0xf4>
    9d24:	e51b0028 	ldr	r0, [fp, #-40]	; 0xffffffd8
    9d28:	e51b102c 	ldr	r1, [fp, #-44]	; 0xffffffd4
    9d2c:	ebfffd9d 	bl	93a8 <propagateFloat32NaN>
    9d30:	e1a03000 	mov	r3, r0
    9d34:	ea00007b 	b	9f28 <subFloat32Sigs+0x2e4>
    9d38:	e3a00001 	mov	r0, #1
    9d3c:	ebffff73 	bl	9b10 <float_raise>
    9d40:	e51b301c 	ldr	r3, [fp, #-28]	; 0xffffffe4
    9d44:	ea000077 	b	9f28 <subFloat32Sigs+0x2e4>
    9d48:	e51b3008 	ldr	r3, [fp, #-8]
    9d4c:	e3530000 	cmp	r3, #0
    9d50:	1a000003 	bne	9d64 <subFloat32Sigs+0x120>
    9d54:	e3a03001 	mov	r3, #1
    9d58:	e50b3008 	str	r3, [fp, #-8]
    9d5c:	e3a03001 	mov	r3, #1
    9d60:	e50b300c 	str	r3, [fp, #-12]
    9d64:	e51b2024 	ldr	r2, [fp, #-36]	; 0xffffffdc
    9d68:	e51b3020 	ldr	r3, [fp, #-32]	; 0xffffffe0
    9d6c:	e1520003 	cmp	r2, r3
    9d70:	2a000000 	bcs	9d78 <subFloat32Sigs+0x134>
    9d74:	ea00005d 	b	9ef0 <subFloat32Sigs+0x2ac>
    9d78:	e51b2020 	ldr	r2, [fp, #-32]	; 0xffffffe0
    9d7c:	e51b3024 	ldr	r3, [fp, #-36]	; 0xffffffdc
    9d80:	e1520003 	cmp	r2, r3
    9d84:	2a000000 	bcs	9d8c <subFloat32Sigs+0x148>
    9d88:	ea000031 	b	9e54 <subFloat32Sigs+0x210>
    9d8c:	e59f31a4 	ldr	r3, [pc, #420]	; 9f38 <subFloat32Sigs+0x2f4>
    9d90:	e5d33000 	ldrb	r3, [r3]
    9d94:	e6af3073 	sxtb	r3, r3
    9d98:	e3530001 	cmp	r3, #1
    9d9c:	03a03001 	moveq	r3, #1
    9da0:	13a03000 	movne	r3, #0
    9da4:	e6ef3073 	uxtb	r3, r3
    9da8:	e1a00003 	mov	r0, r3
    9dac:	e3a01000 	mov	r1, #0
    9db0:	e3a02000 	mov	r2, #0
    9db4:	ebfffdfa 	bl	95a4 <packFloat32>
    9db8:	e1a03000 	mov	r3, r0
    9dbc:	ea000059 	b	9f28 <subFloat32Sigs+0x2e4>
    9dc0:	e51b3024 	ldr	r3, [fp, #-36]	; 0xffffffdc
    9dc4:	e3530000 	cmp	r3, #0
    9dc8:	0a000004 	beq	9de0 <subFloat32Sigs+0x19c>
    9dcc:	e51b0028 	ldr	r0, [fp, #-40]	; 0xffffffd8
    9dd0:	e51b102c 	ldr	r1, [fp, #-44]	; 0xffffffd4
    9dd4:	ebfffd73 	bl	93a8 <propagateFloat32NaN>
    9dd8:	e1a03000 	mov	r3, r0
    9ddc:	ea000051 	b	9f28 <subFloat32Sigs+0x2e4>
    9de0:	e51b3030 	ldr	r3, [fp, #-48]	; 0xffffffd0
    9de4:	e2233001 	eor	r3, r3, #1
    9de8:	e1a00003 	mov	r0, r3
    9dec:	e3a010ff 	mov	r1, #255	; 0xff
    9df0:	e3a02000 	mov	r2, #0
    9df4:	ebfffdea 	bl	95a4 <packFloat32>
    9df8:	e1a03000 	mov	r3, r0
    9dfc:	ea000049 	b	9f28 <subFloat32Sigs+0x2e4>
    9e00:	e51b3008 	ldr	r3, [fp, #-8]
    9e04:	e3530000 	cmp	r3, #0
    9e08:	1a000003 	bne	9e1c <subFloat32Sigs+0x1d8>
    9e0c:	e51b3018 	ldr	r3, [fp, #-24]	; 0xffffffe8
    9e10:	e2833001 	add	r3, r3, #1
    9e14:	e50b3018 	str	r3, [fp, #-24]	; 0xffffffe8
    9e18:	ea000002 	b	9e28 <subFloat32Sigs+0x1e4>
    9e1c:	e51b3020 	ldr	r3, [fp, #-32]	; 0xffffffe0
    9e20:	e3833101 	orr	r3, r3, #1073741824	; 0x40000000
    9e24:	e50b3020 	str	r3, [fp, #-32]	; 0xffffffe0
    9e28:	e51b1020 	ldr	r1, [fp, #-32]	; 0xffffffe0
    9e2c:	e51b3018 	ldr	r3, [fp, #-24]	; 0xffffffe8
    9e30:	e2632000 	rsb	r2, r3, #0
    9e34:	e24b3020 	sub	r3, fp, #32
    9e38:	e1a00001 	mov	r0, r1
    9e3c:	e1a01002 	mov	r1, r2
    9e40:	e1a02003 	mov	r2, r3
    9e44:	ebfffdac 	bl	94fc <shift32RightJamming>
    9e48:	e51b3024 	ldr	r3, [fp, #-36]	; 0xffffffdc
    9e4c:	e3833101 	orr	r3, r3, #1073741824	; 0x40000000
    9e50:	e50b3024 	str	r3, [fp, #-36]	; 0xffffffdc
    9e54:	e51b2024 	ldr	r2, [fp, #-36]	; 0xffffffdc
    9e58:	e51b3020 	ldr	r3, [fp, #-32]	; 0xffffffe0
    9e5c:	e0633002 	rsb	r3, r3, r2
    9e60:	e50b3014 	str	r3, [fp, #-20]	; 0xffffffec
    9e64:	e51b300c 	ldr	r3, [fp, #-12]
    9e68:	e50b3010 	str	r3, [fp, #-16]
    9e6c:	e51b3030 	ldr	r3, [fp, #-48]	; 0xffffffd0
    9e70:	e2233001 	eor	r3, r3, #1
    9e74:	e50b3030 	str	r3, [fp, #-48]	; 0xffffffd0
    9e78:	ea000022 	b	9f08 <subFloat32Sigs+0x2c4>
    9e7c:	e51b3020 	ldr	r3, [fp, #-32]	; 0xffffffe0
    9e80:	e3530000 	cmp	r3, #0
    9e84:	0a000004 	beq	9e9c <subFloat32Sigs+0x258>
    9e88:	e51b0028 	ldr	r0, [fp, #-40]	; 0xffffffd8
    9e8c:	e51b102c 	ldr	r1, [fp, #-44]	; 0xffffffd4
    9e90:	ebfffd44 	bl	93a8 <propagateFloat32NaN>
    9e94:	e1a03000 	mov	r3, r0
    9e98:	ea000022 	b	9f28 <subFloat32Sigs+0x2e4>
    9e9c:	e51b3028 	ldr	r3, [fp, #-40]	; 0xffffffd8
    9ea0:	ea000020 	b	9f28 <subFloat32Sigs+0x2e4>
    9ea4:	e51b300c 	ldr	r3, [fp, #-12]
    9ea8:	e3530000 	cmp	r3, #0
    9eac:	1a000003 	bne	9ec0 <subFloat32Sigs+0x27c>
    9eb0:	e51b3018 	ldr	r3, [fp, #-24]	; 0xffffffe8
    9eb4:	e2433001 	sub	r3, r3, #1
    9eb8:	e50b3018 	str	r3, [fp, #-24]	; 0xffffffe8
    9ebc:	ea000002 	b	9ecc <subFloat32Sigs+0x288>
    9ec0:	e51b3024 	ldr	r3, [fp, #-36]	; 0xffffffdc
    9ec4:	e3833101 	orr	r3, r3, #1073741824	; 0x40000000
    9ec8:	e50b3024 	str	r3, [fp, #-36]	; 0xffffffdc
    9ecc:	e51b2024 	ldr	r2, [fp, #-36]	; 0xffffffdc
    9ed0:	e24b3024 	sub	r3, fp, #36	; 0x24
    9ed4:	e1a00002 	mov	r0, r2
    9ed8:	e51b1018 	ldr	r1, [fp, #-24]	; 0xffffffe8
    9edc:	e1a02003 	mov	r2, r3
    9ee0:	ebfffd85 	bl	94fc <shift32RightJamming>
    9ee4:	e51b3020 	ldr	r3, [fp, #-32]	; 0xffffffe0
    9ee8:	e3833101 	orr	r3, r3, #1073741824	; 0x40000000
    9eec:	e50b3020 	str	r3, [fp, #-32]	; 0xffffffe0
    9ef0:	e51b2020 	ldr	r2, [fp, #-32]	; 0xffffffe0
    9ef4:	e51b3024 	ldr	r3, [fp, #-36]	; 0xffffffdc
    9ef8:	e0633002 	rsb	r3, r3, r2
    9efc:	e50b3014 	str	r3, [fp, #-20]	; 0xffffffec
    9f00:	e51b3008 	ldr	r3, [fp, #-8]
    9f04:	e50b3010 	str	r3, [fp, #-16]
    9f08:	e51b3010 	ldr	r3, [fp, #-16]
    9f0c:	e2433001 	sub	r3, r3, #1
    9f10:	e50b3010 	str	r3, [fp, #-16]
    9f14:	e51b0030 	ldr	r0, [fp, #-48]	; 0xffffffd0
    9f18:	e51b1010 	ldr	r1, [fp, #-16]
    9f1c:	e51b2014 	ldr	r2, [fp, #-20]	; 0xffffffec
    9f20:	ebffff2f 	bl	9be4 <normalizeRoundAndPackFloat32>
    9f24:	e1a03000 	mov	r3, r0
    9f28:	e1a00003 	mov	r0, r3
    9f2c:	e24bd004 	sub	sp, fp, #4
    9f30:	e8bd8800 	pop	{fp, pc}
    9f34:	ffc00000 	.word	0xffc00000
    9f38:	0000b051 	.word	0x0000b051

00009f3c <float32_add>:
    9f3c:	e92d4800 	push	{fp, lr}
    9f40:	e28db004 	add	fp, sp, #4
    9f44:	e24dd010 	sub	sp, sp, #16
    9f48:	e50b0010 	str	r0, [fp, #-16]
    9f4c:	e50b1014 	str	r1, [fp, #-20]	; 0xffffffec
    9f50:	e51b0010 	ldr	r0, [fp, #-16]
    9f54:	ebfffd09 	bl	9380 <extractFloat32Sign>
    9f58:	e50b0008 	str	r0, [fp, #-8]
    9f5c:	e51b0014 	ldr	r0, [fp, #-20]	; 0xffffffec
    9f60:	ebfffd06 	bl	9380 <extractFloat32Sign>
    9f64:	e50b000c 	str	r0, [fp, #-12]
    9f68:	e51b2008 	ldr	r2, [fp, #-8]
    9f6c:	e51b300c 	ldr	r3, [fp, #-12]
    9f70:	e1520003 	cmp	r2, r3
    9f74:	1a000005 	bne	9f90 <float32_add+0x54>
    9f78:	e51b0010 	ldr	r0, [fp, #-16]
    9f7c:	e51b1014 	ldr	r1, [fp, #-20]	; 0xffffffec
    9f80:	e51b2008 	ldr	r2, [fp, #-8]
    9f84:	ebfffe36 	bl	9864 <addFloat32Sigs>
    9f88:	e1a03000 	mov	r3, r0
    9f8c:	ea000004 	b	9fa4 <float32_add+0x68>
    9f90:	e51b0010 	ldr	r0, [fp, #-16]
    9f94:	e51b1014 	ldr	r1, [fp, #-20]	; 0xffffffec
    9f98:	e51b2008 	ldr	r2, [fp, #-8]
    9f9c:	ebffff28 	bl	9c44 <subFloat32Sigs>
    9fa0:	e1a03000 	mov	r3, r0
    9fa4:	e1a00003 	mov	r0, r3
    9fa8:	e24bd004 	sub	sp, fp, #4
    9fac:	e8bd8800 	pop	{fp, pc}

00009fb0 <float32_sub>:
    9fb0:	e92d4800 	push	{fp, lr}
    9fb4:	e28db004 	add	fp, sp, #4
    9fb8:	e24dd010 	sub	sp, sp, #16
    9fbc:	e50b0010 	str	r0, [fp, #-16]
    9fc0:	e50b1014 	str	r1, [fp, #-20]	; 0xffffffec
    9fc4:	e51b0010 	ldr	r0, [fp, #-16]
    9fc8:	ebfffcec 	bl	9380 <extractFloat32Sign>
    9fcc:	e50b0008 	str	r0, [fp, #-8]
    9fd0:	e51b0014 	ldr	r0, [fp, #-20]	; 0xffffffec
    9fd4:	ebfffce9 	bl	9380 <extractFloat32Sign>
    9fd8:	e50b000c 	str	r0, [fp, #-12]
    9fdc:	e51b2008 	ldr	r2, [fp, #-8]
    9fe0:	e51b300c 	ldr	r3, [fp, #-12]
    9fe4:	e1520003 	cmp	r2, r3
    9fe8:	1a000005 	bne	a004 <float32_sub+0x54>
    9fec:	e51b0010 	ldr	r0, [fp, #-16]
    9ff0:	e51b1014 	ldr	r1, [fp, #-20]	; 0xffffffec
    9ff4:	e51b2008 	ldr	r2, [fp, #-8]
    9ff8:	ebffff11 	bl	9c44 <subFloat32Sigs>
    9ffc:	e1a03000 	mov	r3, r0
    a000:	ea000004 	b	a018 <float32_sub+0x68>
    a004:	e51b0010 	ldr	r0, [fp, #-16]
    a008:	e51b1014 	ldr	r1, [fp, #-20]	; 0xffffffec
    a00c:	e51b2008 	ldr	r2, [fp, #-8]
    a010:	ebfffe13 	bl	9864 <addFloat32Sigs>
    a014:	e1a03000 	mov	r3, r0
    a018:	e1a00003 	mov	r0, r3
    a01c:	e24bd004 	sub	sp, fp, #4
    a020:	e8bd8800 	pop	{fp, pc}

0000a024 <expo>:
    a024:	e52db004 	push	{fp}		; (str fp, [sp, #-4]!)
    a028:	e28db000 	add	fp, sp, #0
    a02c:	e24dd014 	sub	sp, sp, #20
    a030:	e50b0010 	str	r0, [fp, #-16]
    a034:	e50b1014 	str	r1, [fp, #-20]	; 0xffffffec
    a038:	e3a03001 	mov	r3, #1
    a03c:	e50b3008 	str	r3, [fp, #-8]
    a040:	ea000006 	b	a060 <expo+0x3c>
    a044:	e51b3008 	ldr	r3, [fp, #-8]
    a048:	e51b2010 	ldr	r2, [fp, #-16]
    a04c:	e0030392 	mul	r3, r2, r3
    a050:	e50b3008 	str	r3, [fp, #-8]
    a054:	e51b3014 	ldr	r3, [fp, #-20]	; 0xffffffec
    a058:	e2433001 	sub	r3, r3, #1
    a05c:	e50b3014 	str	r3, [fp, #-20]	; 0xffffffec
    a060:	e51b3014 	ldr	r3, [fp, #-20]	; 0xffffffec
    a064:	e3530000 	cmp	r3, #0
    a068:	1afffff5 	bne	a044 <expo+0x20>
    a06c:	e51b3008 	ldr	r3, [fp, #-8]
    a070:	e1a00003 	mov	r0, r3
    a074:	e24bd000 	sub	sp, fp, #0
    a078:	e49db004 	pop	{fp}		; (ldr fp, [sp], #4)
    a07c:	e12fff1e 	bx	lr

0000a080 <digits>:
    a080:	e52db004 	push	{fp}		; (str fp, [sp, #-4]!)
    a084:	e28db000 	add	fp, sp, #0
    a088:	e24dd014 	sub	sp, sp, #20
    a08c:	e50b0010 	str	r0, [fp, #-16]
    a090:	e3a03000 	mov	r3, #0
    a094:	e50b3008 	str	r3, [fp, #-8]
    a098:	e51b3010 	ldr	r3, [fp, #-16]
    a09c:	e3530000 	cmp	r3, #0
    a0a0:	1a000001 	bne	a0ac <digits+0x2c>
    a0a4:	e3a03000 	mov	r3, #0
    a0a8:	ea00000c 	b	a0e0 <digits+0x60>
    a0ac:	ea000007 	b	a0d0 <digits+0x50>
    a0b0:	e51b3010 	ldr	r3, [fp, #-16]
    a0b4:	e59f2034 	ldr	r2, [pc, #52]	; a0f0 <digits+0x70>
    a0b8:	e0832392 	umull	r2, r3, r2, r3
    a0bc:	e1a031a3 	lsr	r3, r3, #3
    a0c0:	e50b3010 	str	r3, [fp, #-16]
    a0c4:	e51b3008 	ldr	r3, [fp, #-8]
    a0c8:	e2833001 	add	r3, r3, #1
    a0cc:	e50b3008 	str	r3, [fp, #-8]
    a0d0:	e51b3010 	ldr	r3, [fp, #-16]
    a0d4:	e3530000 	cmp	r3, #0
    a0d8:	1afffff4 	bne	a0b0 <digits+0x30>
    a0dc:	e51b3008 	ldr	r3, [fp, #-8]
    a0e0:	e1a00003 	mov	r0, r3
    a0e4:	e24bd000 	sub	sp, fp, #0
    a0e8:	e49db004 	pop	{fp}		; (ldr fp, [sp], #4)
    a0ec:	e12fff1e 	bx	lr
    a0f0:	cccccccd 	.word	0xcccccccd

0000a0f4 <getfraction>:
    a0f4:	e92d4800 	push	{fp, lr}
    a0f8:	e28db004 	add	fp, sp, #4
    a0fc:	e24dd020 	sub	sp, sp, #32
    a100:	e50b0018 	str	r0, [fp, #-24]	; 0xffffffe8
    a104:	e50b101c 	str	r1, [fp, #-28]	; 0xffffffe4
    a108:	e50b2020 	str	r2, [fp, #-32]	; 0xffffffe0
    a10c:	e3a03000 	mov	r3, #0
    a110:	e50b3008 	str	r3, [fp, #-8]
    a114:	e3a03000 	mov	r3, #0
    a118:	e50b300c 	str	r3, [fp, #-12]
    a11c:	e51b0020 	ldr	r0, [fp, #-32]	; 0xffffffe0
    a120:	ebffffd6 	bl	a080 <digits>
    a124:	e1a02000 	mov	r2, r0
    a128:	e51b301c 	ldr	r3, [fp, #-28]	; 0xffffffe4
    a12c:	e0823003 	add	r3, r2, r3
    a130:	e50b3010 	str	r3, [fp, #-16]
    a134:	ea00001c 	b	a1ac <getfraction+0xb8>
    a138:	e51b3020 	ldr	r3, [fp, #-32]	; 0xffffffe0
    a13c:	e1a03083 	lsl	r3, r3, #1
    a140:	e50b300c 	str	r3, [fp, #-12]
    a144:	e51b000c 	ldr	r0, [fp, #-12]
    a148:	ebffffcc 	bl	a080 <digits>
    a14c:	e1a02000 	mov	r2, r0
    a150:	e51b3010 	ldr	r3, [fp, #-16]
    a154:	e1520003 	cmp	r2, r3
    a158:	9a00000e 	bls	a198 <getfraction+0xa4>
    a15c:	e51b3018 	ldr	r3, [fp, #-24]	; 0xffffffe8
    a160:	e3a02001 	mov	r2, #1
    a164:	e1a03312 	lsl	r3, r2, r3
    a168:	e1a02003 	mov	r2, r3
    a16c:	e51b3008 	ldr	r3, [fp, #-8]
    a170:	e1833002 	orr	r3, r3, r2
    a174:	e50b3008 	str	r3, [fp, #-8]
    a178:	e3a0000a 	mov	r0, #10
    a17c:	e51b1010 	ldr	r1, [fp, #-16]
    a180:	ebffffa7 	bl	a024 <expo>
    a184:	e1a02000 	mov	r2, r0
    a188:	e51b300c 	ldr	r3, [fp, #-12]
    a18c:	e0623003 	rsb	r3, r2, r3
    a190:	e50b3020 	str	r3, [fp, #-32]	; 0xffffffe0
    a194:	ea000001 	b	a1a0 <getfraction+0xac>
    a198:	e51b300c 	ldr	r3, [fp, #-12]
    a19c:	e50b3020 	str	r3, [fp, #-32]	; 0xffffffe0
    a1a0:	e51b3018 	ldr	r3, [fp, #-24]	; 0xffffffe8
    a1a4:	e2433001 	sub	r3, r3, #1
    a1a8:	e50b3018 	str	r3, [fp, #-24]	; 0xffffffe8
    a1ac:	e51b3018 	ldr	r3, [fp, #-24]	; 0xffffffe8
    a1b0:	e3530000 	cmp	r3, #0
    a1b4:	0a000002 	beq	a1c4 <getfraction+0xd0>
    a1b8:	e51b3020 	ldr	r3, [fp, #-32]	; 0xffffffe0
    a1bc:	e3530000 	cmp	r3, #0
    a1c0:	1affffdc 	bne	a138 <getfraction+0x44>
    a1c4:	e51b3008 	ldr	r3, [fp, #-8]
    a1c8:	e1a00003 	mov	r0, r3
    a1cc:	e24bd004 	sub	sp, fp, #4
    a1d0:	e8bd8800 	pop	{fp, pc}

0000a1d4 <ASCII_to_float32>:
    a1d4:	e92d4800 	push	{fp, lr}
    a1d8:	e28db004 	add	fp, sp, #4
    a1dc:	e24dd030 	sub	sp, sp, #48	; 0x30
    a1e0:	e50b0030 	str	r0, [fp, #-48]	; 0xffffffd0
    a1e4:	e3a03000 	mov	r3, #0
    a1e8:	e50b3008 	str	r3, [fp, #-8]
    a1ec:	e3a03000 	mov	r3, #0
    a1f0:	e50b300c 	str	r3, [fp, #-12]
    a1f4:	e3a03000 	mov	r3, #0
    a1f8:	e50b3010 	str	r3, [fp, #-16]
    a1fc:	e3a03000 	mov	r3, #0
    a200:	e50b3014 	str	r3, [fp, #-20]	; 0xffffffec
    a204:	e3a03000 	mov	r3, #0
    a208:	e50b3028 	str	r3, [fp, #-40]	; 0xffffffd8
    a20c:	e3a03000 	mov	r3, #0
    a210:	e50b3018 	str	r3, [fp, #-24]	; 0xffffffe8
    a214:	e3a03000 	mov	r3, #0
    a218:	e50b301c 	str	r3, [fp, #-28]	; 0xffffffe4
    a21c:	e3a03000 	mov	r3, #0
    a220:	e50b302c 	str	r3, [fp, #-44]	; 0xffffffd4
    a224:	e51b2030 	ldr	r2, [fp, #-48]	; 0xffffffd0
    a228:	e51b300c 	ldr	r3, [fp, #-12]
    a22c:	e0823003 	add	r3, r2, r3
    a230:	e5d33000 	ldrb	r3, [r3]
    a234:	e353002d 	cmp	r3, #45	; 0x2d
    a238:	1a000004 	bne	a250 <ASCII_to_float32+0x7c>
    a23c:	e3a03102 	mov	r3, #-2147483648	; 0x80000000
    a240:	e50b3008 	str	r3, [fp, #-8]
    a244:	e51b300c 	ldr	r3, [fp, #-12]
    a248:	e2833001 	add	r3, r3, #1
    a24c:	e50b300c 	str	r3, [fp, #-12]
    a250:	ea00000f 	b	a294 <ASCII_to_float32+0xc0>
    a254:	e51b2030 	ldr	r2, [fp, #-48]	; 0xffffffd0
    a258:	e51b300c 	ldr	r3, [fp, #-12]
    a25c:	e0823003 	add	r3, r2, r3
    a260:	e5d33000 	ldrb	r3, [r3]
    a264:	e1a02003 	mov	r2, r3
    a268:	e51b3010 	ldr	r3, [fp, #-16]
    a26c:	e0822003 	add	r2, r2, r3
    a270:	e1a03002 	mov	r3, r2
    a274:	e1a03103 	lsl	r3, r3, #2
    a278:	e0833002 	add	r3, r3, r2
    a27c:	e1a03083 	lsl	r3, r3, #1
    a280:	e2433e1e 	sub	r3, r3, #480	; 0x1e0
    a284:	e50b3010 	str	r3, [fp, #-16]
    a288:	e51b300c 	ldr	r3, [fp, #-12]
    a28c:	e2833001 	add	r3, r3, #1
    a290:	e50b300c 	str	r3, [fp, #-12]
    a294:	e51b2030 	ldr	r2, [fp, #-48]	; 0xffffffd0
    a298:	e51b300c 	ldr	r3, [fp, #-12]
    a29c:	e0823003 	add	r3, r2, r3
    a2a0:	e5d33000 	ldrb	r3, [r3]
    a2a4:	e353002e 	cmp	r3, #46	; 0x2e
    a2a8:	1affffe9 	bne	a254 <ASCII_to_float32+0x80>
    a2ac:	e51b3010 	ldr	r3, [fp, #-16]
    a2b0:	e59f2304 	ldr	r2, [pc, #772]	; a5bc <ASCII_to_float32+0x3e8>
    a2b4:	e0832392 	umull	r2, r3, r2, r3
    a2b8:	e1a031a3 	lsr	r3, r3, #3
    a2bc:	e50b3010 	str	r3, [fp, #-16]
    a2c0:	e51b300c 	ldr	r3, [fp, #-12]
    a2c4:	e2833001 	add	r3, r3, #1
    a2c8:	e50b300c 	str	r3, [fp, #-12]
    a2cc:	ea000005 	b	a2e8 <ASCII_to_float32+0x114>
    a2d0:	e51b301c 	ldr	r3, [fp, #-28]	; 0xffffffe4
    a2d4:	e2833001 	add	r3, r3, #1
    a2d8:	e50b301c 	str	r3, [fp, #-28]	; 0xffffffe4
    a2dc:	e51b300c 	ldr	r3, [fp, #-12]
    a2e0:	e2833001 	add	r3, r3, #1
    a2e4:	e50b300c 	str	r3, [fp, #-12]
    a2e8:	e51b2030 	ldr	r2, [fp, #-48]	; 0xffffffd0
    a2ec:	e51b300c 	ldr	r3, [fp, #-12]
    a2f0:	e0823003 	add	r3, r2, r3
    a2f4:	e5d33000 	ldrb	r3, [r3]
    a2f8:	e3530030 	cmp	r3, #48	; 0x30
    a2fc:	0afffff3 	beq	a2d0 <ASCII_to_float32+0xfc>
    a300:	ea00000f 	b	a344 <ASCII_to_float32+0x170>
    a304:	e51b2030 	ldr	r2, [fp, #-48]	; 0xffffffd0
    a308:	e51b300c 	ldr	r3, [fp, #-12]
    a30c:	e0823003 	add	r3, r2, r3
    a310:	e5d33000 	ldrb	r3, [r3]
    a314:	e1a02003 	mov	r2, r3
    a318:	e51b3014 	ldr	r3, [fp, #-20]	; 0xffffffec
    a31c:	e0822003 	add	r2, r2, r3
    a320:	e1a03002 	mov	r3, r2
    a324:	e1a03103 	lsl	r3, r3, #2
    a328:	e0833002 	add	r3, r3, r2
    a32c:	e1a03083 	lsl	r3, r3, #1
    a330:	e2433e1e 	sub	r3, r3, #480	; 0x1e0
    a334:	e50b3014 	str	r3, [fp, #-20]	; 0xffffffec
    a338:	e51b300c 	ldr	r3, [fp, #-12]
    a33c:	e2833001 	add	r3, r3, #1
    a340:	e50b300c 	str	r3, [fp, #-12]
    a344:	e51b2030 	ldr	r2, [fp, #-48]	; 0xffffffd0
    a348:	e51b300c 	ldr	r3, [fp, #-12]
    a34c:	e0823003 	add	r3, r2, r3
    a350:	e5d33000 	ldrb	r3, [r3]
    a354:	e3530000 	cmp	r3, #0
    a358:	1affffe9 	bne	a304 <ASCII_to_float32+0x130>
    a35c:	e51b3014 	ldr	r3, [fp, #-20]	; 0xffffffec
    a360:	e59f2254 	ldr	r2, [pc, #596]	; a5bc <ASCII_to_float32+0x3e8>
    a364:	e0832392 	umull	r2, r3, r2, r3
    a368:	e1a031a3 	lsr	r3, r3, #3
    a36c:	e50b3014 	str	r3, [fp, #-20]	; 0xffffffec
    a370:	e51b3010 	ldr	r3, [fp, #-16]
    a374:	e3530000 	cmp	r3, #0
    a378:	1a000004 	bne	a390 <ASCII_to_float32+0x1bc>
    a37c:	e51b3014 	ldr	r3, [fp, #-20]	; 0xffffffec
    a380:	e3530000 	cmp	r3, #0
    a384:	1a000001 	bne	a390 <ASCII_to_float32+0x1bc>
    a388:	e3a03000 	mov	r3, #0
    a38c:	ea000087 	b	a5b0 <ASCII_to_float32+0x3dc>
    a390:	e51b3010 	ldr	r3, [fp, #-16]
    a394:	e3530000 	cmp	r3, #0
    a398:	1a00002f 	bne	a45c <ASCII_to_float32+0x288>
    a39c:	e51b3014 	ldr	r3, [fp, #-20]	; 0xffffffec
    a3a0:	e3530000 	cmp	r3, #0
    a3a4:	0a00002c 	beq	a45c <ASCII_to_float32+0x288>
    a3a8:	e3a03000 	mov	r3, #0
    a3ac:	e50b3020 	str	r3, [fp, #-32]	; 0xffffffe0
    a3b0:	e3a03000 	mov	r3, #0
    a3b4:	e50b3024 	str	r3, [fp, #-36]	; 0xffffffdc
    a3b8:	e3a00016 	mov	r0, #22
    a3bc:	e51b101c 	ldr	r1, [fp, #-28]	; 0xffffffe4
    a3c0:	e51b2014 	ldr	r2, [fp, #-20]	; 0xffffffec
    a3c4:	ebffff4a 	bl	a0f4 <getfraction>
    a3c8:	e50b0020 	str	r0, [fp, #-32]	; 0xffffffe0
    a3cc:	ea000005 	b	a3e8 <ASCII_to_float32+0x214>
    a3d0:	e51b3020 	ldr	r3, [fp, #-32]	; 0xffffffe0
    a3d4:	e1a03083 	lsl	r3, r3, #1
    a3d8:	e50b3020 	str	r3, [fp, #-32]	; 0xffffffe0
    a3dc:	e51b3024 	ldr	r3, [fp, #-36]	; 0xffffffdc
    a3e0:	e2833001 	add	r3, r3, #1
    a3e4:	e50b3024 	str	r3, [fp, #-36]	; 0xffffffdc
    a3e8:	e51b3020 	ldr	r3, [fp, #-32]	; 0xffffffe0
    a3ec:	e3530000 	cmp	r3, #0
    a3f0:	aafffff6 	bge	a3d0 <ASCII_to_float32+0x1fc>
    a3f4:	e51b3020 	ldr	r3, [fp, #-32]	; 0xffffffe0
    a3f8:	e1a03083 	lsl	r3, r3, #1
    a3fc:	e50b3020 	str	r3, [fp, #-32]	; 0xffffffe0
    a400:	e51b3020 	ldr	r3, [fp, #-32]	; 0xffffffe0
    a404:	e1a034a3 	lsr	r3, r3, #9
    a408:	e50b3020 	str	r3, [fp, #-32]	; 0xffffffe0
    a40c:	e51b2008 	ldr	r2, [fp, #-8]
    a410:	e51b3020 	ldr	r3, [fp, #-32]	; 0xffffffe0
    a414:	e1823003 	orr	r3, r2, r3
    a418:	e50b3008 	str	r3, [fp, #-8]
    a41c:	e51b3024 	ldr	r3, [fp, #-36]	; 0xffffffdc
    a420:	e2433008 	sub	r3, r3, #8
    a424:	e50b3024 	str	r3, [fp, #-36]	; 0xffffffdc
    a428:	e3a03000 	mov	r3, #0
    a42c:	e50b3028 	str	r3, [fp, #-40]	; 0xffffffd8
    a430:	e51b2024 	ldr	r2, [fp, #-36]	; 0xffffffdc
    a434:	e1a03002 	mov	r3, r2
    a438:	e1a03483 	lsl	r3, r3, #9
    a43c:	e0623003 	rsb	r3, r2, r3
    a440:	e1a03b83 	lsl	r3, r3, #23
    a444:	e28335fe 	add	r3, r3, #1065353216	; 0x3f800000
    a448:	e50b3028 	str	r3, [fp, #-40]	; 0xffffffd8
    a44c:	e51b2008 	ldr	r2, [fp, #-8]
    a450:	e51b3028 	ldr	r3, [fp, #-40]	; 0xffffffd8
    a454:	e1823003 	orr	r3, r2, r3
    a458:	ea000054 	b	a5b0 <ASCII_to_float32+0x3dc>
    a45c:	e51b3010 	ldr	r3, [fp, #-16]
    a460:	e3530000 	cmp	r3, #0
    a464:	0a000022 	beq	a4f4 <ASCII_to_float32+0x320>
    a468:	e51b3014 	ldr	r3, [fp, #-20]	; 0xffffffec
    a46c:	e3530000 	cmp	r3, #0
    a470:	1a00001f 	bne	a4f4 <ASCII_to_float32+0x320>
    a474:	ea000005 	b	a490 <ASCII_to_float32+0x2bc>
    a478:	e51b3010 	ldr	r3, [fp, #-16]
    a47c:	e1a03083 	lsl	r3, r3, #1
    a480:	e50b3010 	str	r3, [fp, #-16]
    a484:	e51b3018 	ldr	r3, [fp, #-24]	; 0xffffffe8
    a488:	e2833001 	add	r3, r3, #1
    a48c:	e50b3018 	str	r3, [fp, #-24]	; 0xffffffe8
    a490:	e51b3010 	ldr	r3, [fp, #-16]
    a494:	e3530501 	cmp	r3, #4194304	; 0x400000
    a498:	3afffff6 	bcc	a478 <ASCII_to_float32+0x2a4>
    a49c:	e51b3018 	ldr	r3, [fp, #-24]	; 0xffffffe8
    a4a0:	e2633017 	rsb	r3, r3, #23
    a4a4:	e50b302c 	str	r3, [fp, #-44]	; 0xffffffd4
    a4a8:	e51b302c 	ldr	r3, [fp, #-44]	; 0xffffffd4
    a4ac:	e283307e 	add	r3, r3, #126	; 0x7e
    a4b0:	e1a03b83 	lsl	r3, r3, #23
    a4b4:	e50b3028 	str	r3, [fp, #-40]	; 0xffffffd8
    a4b8:	e51b2008 	ldr	r2, [fp, #-8]
    a4bc:	e51b3028 	ldr	r3, [fp, #-40]	; 0xffffffd8
    a4c0:	e1823003 	orr	r3, r2, r3
    a4c4:	e50b3008 	str	r3, [fp, #-8]
    a4c8:	e51b3010 	ldr	r3, [fp, #-16]
    a4cc:	e1a03083 	lsl	r3, r3, #1
    a4d0:	e50b3010 	str	r3, [fp, #-16]
    a4d4:	e51b3010 	ldr	r3, [fp, #-16]
    a4d8:	e3c334ff 	bic	r3, r3, #-16777216	; 0xff000000
    a4dc:	e3c33502 	bic	r3, r3, #8388608	; 0x800000
    a4e0:	e50b3010 	str	r3, [fp, #-16]
    a4e4:	e51b2008 	ldr	r2, [fp, #-8]
    a4e8:	e51b3010 	ldr	r3, [fp, #-16]
    a4ec:	e1823003 	orr	r3, r2, r3
    a4f0:	ea00002e 	b	a5b0 <ASCII_to_float32+0x3dc>
    a4f4:	e51b3010 	ldr	r3, [fp, #-16]
    a4f8:	e3530000 	cmp	r3, #0
    a4fc:	0a00002a 	beq	a5ac <ASCII_to_float32+0x3d8>
    a500:	e51b3014 	ldr	r3, [fp, #-20]	; 0xffffffec
    a504:	e3530000 	cmp	r3, #0
    a508:	0a000027 	beq	a5ac <ASCII_to_float32+0x3d8>
    a50c:	ea000005 	b	a528 <ASCII_to_float32+0x354>
    a510:	e51b3010 	ldr	r3, [fp, #-16]
    a514:	e1a03083 	lsl	r3, r3, #1
    a518:	e50b3010 	str	r3, [fp, #-16]
    a51c:	e51b3018 	ldr	r3, [fp, #-24]	; 0xffffffe8
    a520:	e2833001 	add	r3, r3, #1
    a524:	e50b3018 	str	r3, [fp, #-24]	; 0xffffffe8
    a528:	e51b3010 	ldr	r3, [fp, #-16]
    a52c:	e3530501 	cmp	r3, #4194304	; 0x400000
    a530:	3afffff6 	bcc	a510 <ASCII_to_float32+0x33c>
    a534:	e51b3018 	ldr	r3, [fp, #-24]	; 0xffffffe8
    a538:	e2633017 	rsb	r3, r3, #23
    a53c:	e50b302c 	str	r3, [fp, #-44]	; 0xffffffd4
    a540:	e51b302c 	ldr	r3, [fp, #-44]	; 0xffffffd4
    a544:	e283307e 	add	r3, r3, #126	; 0x7e
    a548:	e1a03b83 	lsl	r3, r3, #23
    a54c:	e50b3028 	str	r3, [fp, #-40]	; 0xffffffd8
    a550:	e51b2008 	ldr	r2, [fp, #-8]
    a554:	e51b3028 	ldr	r3, [fp, #-40]	; 0xffffffd8
    a558:	e1823003 	orr	r3, r2, r3
    a55c:	e50b3008 	str	r3, [fp, #-8]
    a560:	e51b3010 	ldr	r3, [fp, #-16]
    a564:	e1a03083 	lsl	r3, r3, #1
    a568:	e50b3010 	str	r3, [fp, #-16]
    a56c:	e51b3010 	ldr	r3, [fp, #-16]
    a570:	e3c334ff 	bic	r3, r3, #-16777216	; 0xff000000
    a574:	e3c33502 	bic	r3, r3, #8388608	; 0x800000
    a578:	e50b3010 	str	r3, [fp, #-16]
    a57c:	e51b2008 	ldr	r2, [fp, #-8]
    a580:	e51b3010 	ldr	r3, [fp, #-16]
    a584:	e1823003 	orr	r3, r2, r3
    a588:	e50b3008 	str	r3, [fp, #-8]
    a58c:	e51b0018 	ldr	r0, [fp, #-24]	; 0xffffffe8
    a590:	e51b101c 	ldr	r1, [fp, #-28]	; 0xffffffe4
    a594:	e51b2014 	ldr	r2, [fp, #-20]	; 0xffffffec
    a598:	ebfffed5 	bl	a0f4 <getfraction>
    a59c:	e1a02000 	mov	r2, r0
    a5a0:	e51b3008 	ldr	r3, [fp, #-8]
    a5a4:	e1823003 	orr	r3, r2, r3
    a5a8:	ea000000 	b	a5b0 <ASCII_to_float32+0x3dc>
    a5ac:	e3a03000 	mov	r3, #0
    a5b0:	e1a00003 	mov	r0, r3
    a5b4:	e24bd004 	sub	sp, fp, #4
    a5b8:	e8bd8800 	pop	{fp, pc}
    a5bc:	cccccccd 	.word	0xcccccccd

0000a5c0 <float32_to_ASCII>:
    a5c0:	e52db004 	push	{fp}		; (str fp, [sp, #-4]!)
    a5c4:	e28db000 	add	fp, sp, #0
    a5c8:	e24dd00c 	sub	sp, sp, #12
    a5cc:	e50b0008 	str	r0, [fp, #-8]
    a5d0:	e59f300c 	ldr	r3, [pc, #12]	; a5e4 <float32_to_ASCII+0x24>
    a5d4:	e1a00003 	mov	r0, r3
    a5d8:	e24bd000 	sub	sp, fp, #0
    a5dc:	e49db004 	pop	{fp}		; (ldr fp, [sp], #4)
    a5e0:	e12fff1e 	bx	lr
    a5e4:	0000abe8 	.word	0x0000abe8

0000a5e8 <spitocan>:
    a5e8:	e92d4800 	push	{fp, lr}
    a5ec:	e28db004 	add	fp, sp, #4
    a5f0:	e24dd010 	sub	sp, sp, #16
    a5f4:	e1a03000 	mov	r3, r0
    a5f8:	e54b300d 	strb	r3, [fp, #-13]
    a5fc:	e59f30ac 	ldr	r3, [pc, #172]	; a6b0 <spitocan+0xc8>
    a600:	e5933000 	ldr	r3, [r3]
    a604:	e50b3008 	str	r3, [fp, #-8]
    a608:	e59f30a0 	ldr	r3, [pc, #160]	; a6b0 <spitocan+0xc8>
    a60c:	e5933000 	ldr	r3, [r3]
    a610:	e2833004 	add	r3, r3, #4
    a614:	e50b300c 	str	r3, [fp, #-12]
    a618:	e51b0008 	ldr	r0, [fp, #-8]
    a61c:	e3a01030 	mov	r1, #48	; 0x30
    a620:	e3a02030 	mov	r2, #48	; 0x30
    a624:	ebfff92c 	bl	8adc <bcm2835_peri_set_bits>
    a628:	e51b0008 	ldr	r0, [fp, #-8]
    a62c:	e3a01080 	mov	r1, #128	; 0x80
    a630:	e3a02080 	mov	r2, #128	; 0x80
    a634:	ebfff928 	bl	8adc <bcm2835_peri_set_bits>
    a638:	ea000002 	b	a648 <spitocan+0x60>
    a63c:	e3a0000a 	mov	r0, #10
    a640:	e3a01000 	mov	r1, #0
    a644:	ebfff8f6 	bl	8a24 <bcm2835_delayMicroseconds>
    a648:	e51b0008 	ldr	r0, [fp, #-8]
    a64c:	ebfff8d3 	bl	89a0 <bcm2835_peri_read>
    a650:	e1a03000 	mov	r3, r0
    a654:	e2033701 	and	r3, r3, #262144	; 0x40000
    a658:	e3530000 	cmp	r3, #0
    a65c:	0afffff6 	beq	a63c <spitocan+0x54>
    a660:	e55b300d 	ldrb	r3, [fp, #-13]
    a664:	e51b000c 	ldr	r0, [fp, #-12]
    a668:	e1a01003 	mov	r1, r3
    a66c:	ebfff90f 	bl	8ab0 <bcm2835_peri_write_nb>
    a670:	ea000002 	b	a680 <spitocan+0x98>
    a674:	e3a0000a 	mov	r0, #10
    a678:	e3a01000 	mov	r1, #0
    a67c:	ebfff8e8 	bl	8a24 <bcm2835_delayMicroseconds>
    a680:	e51b0008 	ldr	r0, [fp, #-8]
    a684:	ebfff8f1 	bl	8a50 <bcm2835_peri_read_nb>
    a688:	e1a03000 	mov	r3, r0
    a68c:	e2033801 	and	r3, r3, #65536	; 0x10000
    a690:	e3530000 	cmp	r3, #0
    a694:	0afffff6 	beq	a674 <spitocan+0x8c>
    a698:	e51b0008 	ldr	r0, [fp, #-8]
    a69c:	e3a01000 	mov	r1, #0
    a6a0:	e3a02080 	mov	r2, #128	; 0x80
    a6a4:	ebfff90c 	bl	8adc <bcm2835_peri_set_bits>
    a6a8:	e24bd004 	sub	sp, fp, #4
    a6ac:	e8bd8800 	pop	{fp, pc}
    a6b0:	0000b020 	.word	0x0000b020

0000a6b4 <cantospi>:
    a6b4:	e92d4800 	push	{fp, lr}
    a6b8:	e28db004 	add	fp, sp, #4
    a6bc:	e24dd010 	sub	sp, sp, #16
    a6c0:	e59f30b0 	ldr	r3, [pc, #176]	; a778 <cantospi+0xc4>
    a6c4:	e5933000 	ldr	r3, [r3]
    a6c8:	e50b3008 	str	r3, [fp, #-8]
    a6cc:	e59f30a4 	ldr	r3, [pc, #164]	; a778 <cantospi+0xc4>
    a6d0:	e5933000 	ldr	r3, [r3]
    a6d4:	e2833004 	add	r3, r3, #4
    a6d8:	e50b300c 	str	r3, [fp, #-12]
    a6dc:	e51b0008 	ldr	r0, [fp, #-8]
    a6e0:	e3a01030 	mov	r1, #48	; 0x30
    a6e4:	e3a02030 	mov	r2, #48	; 0x30
    a6e8:	ebfff8fb 	bl	8adc <bcm2835_peri_set_bits>
    a6ec:	e51b0008 	ldr	r0, [fp, #-8]
    a6f0:	e3a01080 	mov	r1, #128	; 0x80
    a6f4:	e3a02080 	mov	r2, #128	; 0x80
    a6f8:	ebfff8f7 	bl	8adc <bcm2835_peri_set_bits>
    a6fc:	ea000002 	b	a70c <cantospi+0x58>
    a700:	e3a0000a 	mov	r0, #10
    a704:	e3a01000 	mov	r1, #0
    a708:	ebfff8c5 	bl	8a24 <bcm2835_delayMicroseconds>
    a70c:	e51b0008 	ldr	r0, [fp, #-8]
    a710:	ebfff8a2 	bl	89a0 <bcm2835_peri_read>
    a714:	e1a03000 	mov	r3, r0
    a718:	e2033701 	and	r3, r3, #262144	; 0x40000
    a71c:	e3530000 	cmp	r3, #0
    a720:	0afffff6 	beq	a700 <cantospi+0x4c>
    a724:	ea000002 	b	a734 <cantospi+0x80>
    a728:	e3a0000a 	mov	r0, #10
    a72c:	e3a01000 	mov	r1, #0
    a730:	ebfff8bb 	bl	8a24 <bcm2835_delayMicroseconds>
    a734:	e51b0008 	ldr	r0, [fp, #-8]
    a738:	ebfff8c4 	bl	8a50 <bcm2835_peri_read_nb>
    a73c:	e1a03000 	mov	r3, r0
    a740:	e2033801 	and	r3, r3, #65536	; 0x10000
    a744:	e3530000 	cmp	r3, #0
    a748:	0afffff6 	beq	a728 <cantospi+0x74>
    a74c:	e51b000c 	ldr	r0, [fp, #-12]
    a750:	ebfff8be 	bl	8a50 <bcm2835_peri_read_nb>
    a754:	e50b0010 	str	r0, [fp, #-16]
    a758:	e51b0008 	ldr	r0, [fp, #-8]
    a75c:	e3a01000 	mov	r1, #0
    a760:	e3a02080 	mov	r2, #128	; 0x80
    a764:	ebfff8dc 	bl	8adc <bcm2835_peri_set_bits>
    a768:	e51b3010 	ldr	r3, [fp, #-16]
    a76c:	e1a00003 	mov	r0, r3
    a770:	e24bd004 	sub	sp, fp, #4
    a774:	e8bd8800 	pop	{fp, pc}
    a778:	0000b020 	.word	0x0000b020

0000a77c <initCAN>:
    a77c:	e52db004 	push	{fp}		; (str fp, [sp, #-4]!)
    a780:	e28db000 	add	fp, sp, #0
    a784:	e24bd000 	sub	sp, fp, #0
    a788:	e49db004 	pop	{fp}		; (ldr fp, [sp], #4)
    a78c:	e12fff1e 	bx	lr

0000a790 <CANtransmit>:
    a790:	e52db004 	push	{fp}		; (str fp, [sp, #-4]!)
    a794:	e28db000 	add	fp, sp, #0
    a798:	e24dd00c 	sub	sp, sp, #12
    a79c:	e1a03000 	mov	r3, r0
    a7a0:	e54b3005 	strb	r3, [fp, #-5]
    a7a4:	e24bd000 	sub	sp, fp, #0
    a7a8:	e49db004 	pop	{fp}		; (ldr fp, [sp], #4)
    a7ac:	e12fff1e 	bx	lr

0000a7b0 <CANreceive>:
    a7b0:	e52db004 	push	{fp}		; (str fp, [sp, #-4]!)
    a7b4:	e28db000 	add	fp, sp, #0
    a7b8:	e1a00003 	mov	r0, r3
    a7bc:	e24bd000 	sub	sp, fp, #0
    a7c0:	e49db004 	pop	{fp}		; (ldr fp, [sp], #4)
    a7c4:	e12fff1e 	bx	lr

0000a7c8 <bcm2835_i2c_begin>:
    a7c8:	e92d4800 	push	{fp, lr}
    a7cc:	e28db004 	add	fp, sp, #4
    a7d0:	e3a00000 	mov	r0, #0
    a7d4:	e3a01004 	mov	r1, #4
    a7d8:	ebfff840 	bl	88e0 <bcm2835_gpio_fsel>
    a7dc:	e3a00001 	mov	r0, #1
    a7e0:	e3a01004 	mov	r1, #4
    a7e4:	ebfff83d 	bl	88e0 <bcm2835_gpio_fsel>
    a7e8:	e8bd8800 	pop	{fp, pc}

0000a7ec <bcm2835_i2c_end>:
    a7ec:	e92d4800 	push	{fp, lr}
    a7f0:	e28db004 	add	fp, sp, #4
    a7f4:	e3a00000 	mov	r0, #0
    a7f8:	e3a01000 	mov	r1, #0
    a7fc:	ebfff837 	bl	88e0 <bcm2835_gpio_fsel>
    a800:	e3a00001 	mov	r0, #1
    a804:	e3a01000 	mov	r1, #0
    a808:	ebfff834 	bl	88e0 <bcm2835_gpio_fsel>
    a80c:	e8bd8800 	pop	{fp, pc}

0000a810 <bcm2835_i2c_setSlaveAddress>:
    a810:	e92d4800 	push	{fp, lr}
    a814:	e28db004 	add	fp, sp, #4
    a818:	e24dd010 	sub	sp, sp, #16
    a81c:	e1a03000 	mov	r3, r0
    a820:	e54b300d 	strb	r3, [fp, #-13]
    a824:	e59f3020 	ldr	r3, [pc, #32]	; a84c <bcm2835_i2c_setSlaveAddress+0x3c>
    a828:	e5933000 	ldr	r3, [r3]
    a82c:	e283300c 	add	r3, r3, #12
    a830:	e50b3008 	str	r3, [fp, #-8]
    a834:	e55b300d 	ldrb	r3, [fp, #-13]
    a838:	e51b0008 	ldr	r0, [fp, #-8]
    a83c:	e1a01003 	mov	r1, r3
    a840:	ebfff88c 	bl	8a78 <bcm2835_peri_write>
    a844:	e24bd004 	sub	sp, fp, #4
    a848:	e8bd8800 	pop	{fp, pc}
    a84c:	0000b024 	.word	0x0000b024

0000a850 <bcm2835_i2c_setClockDivider>:
    a850:	e92d4800 	push	{fp, lr}
    a854:	e28db004 	add	fp, sp, #4
    a858:	e24dd010 	sub	sp, sp, #16
    a85c:	e1a03000 	mov	r3, r0
    a860:	e14b30be 	strh	r3, [fp, #-14]
    a864:	e59f3020 	ldr	r3, [pc, #32]	; a88c <bcm2835_i2c_setClockDivider+0x3c>
    a868:	e5933000 	ldr	r3, [r3]
    a86c:	e2833014 	add	r3, r3, #20
    a870:	e50b3008 	str	r3, [fp, #-8]
    a874:	e15b30be 	ldrh	r3, [fp, #-14]
    a878:	e51b0008 	ldr	r0, [fp, #-8]
    a87c:	e1a01003 	mov	r1, r3
    a880:	ebfff87c 	bl	8a78 <bcm2835_peri_write>
    a884:	e24bd004 	sub	sp, fp, #4
    a888:	e8bd8800 	pop	{fp, pc}
    a88c:	0000b024 	.word	0x0000b024

0000a890 <bcm2835_i2c_write>:
    a890:	e92d4800 	push	{fp, lr}
    a894:	e28db004 	add	fp, sp, #4
    a898:	e24dd018 	sub	sp, sp, #24
    a89c:	e1a03000 	mov	r3, r0
    a8a0:	e50b101c 	str	r1, [fp, #-28]	; 0xffffffe4
    a8a4:	e54b3015 	strb	r3, [fp, #-21]	; 0xffffffeb
    a8a8:	e59f30a4 	ldr	r3, [pc, #164]	; a954 <bcm2835_i2c_write+0xc4>
    a8ac:	e5933000 	ldr	r3, [r3]
    a8b0:	e2833008 	add	r3, r3, #8
    a8b4:	e50b3008 	str	r3, [fp, #-8]
    a8b8:	e59f3094 	ldr	r3, [pc, #148]	; a954 <bcm2835_i2c_write+0xc4>
    a8bc:	e5933000 	ldr	r3, [r3]
    a8c0:	e2833010 	add	r3, r3, #16
    a8c4:	e50b300c 	str	r3, [fp, #-12]
    a8c8:	e59f3084 	ldr	r3, [pc, #132]	; a954 <bcm2835_i2c_write+0xc4>
    a8cc:	e5933000 	ldr	r3, [r3]
    a8d0:	e2833004 	add	r3, r3, #4
    a8d4:	e50b3010 	str	r3, [fp, #-16]
    a8d8:	e59f3074 	ldr	r3, [pc, #116]	; a954 <bcm2835_i2c_write+0xc4>
    a8dc:	e5933000 	ldr	r3, [r3]
    a8e0:	e50b3014 	str	r3, [fp, #-20]	; 0xffffffec
    a8e4:	e51b0014 	ldr	r0, [fp, #-20]	; 0xffffffec
    a8e8:	e3a01020 	mov	r1, #32
    a8ec:	e3a02020 	mov	r2, #32
    a8f0:	ebfff879 	bl	8adc <bcm2835_peri_set_bits>
    a8f4:	e51b0010 	ldr	r0, [fp, #-16]
    a8f8:	e59f1058 	ldr	r1, [pc, #88]	; a958 <bcm2835_i2c_write+0xc8>
    a8fc:	ebfff86b 	bl	8ab0 <bcm2835_peri_write_nb>
    a900:	e51b0008 	ldr	r0, [fp, #-8]
    a904:	e3a01002 	mov	r1, #2
    a908:	ebfff868 	bl	8ab0 <bcm2835_peri_write_nb>
    a90c:	e51b0014 	ldr	r0, [fp, #-20]	; 0xffffffec
    a910:	e59f1044 	ldr	r1, [pc, #68]	; a95c <bcm2835_i2c_write+0xcc>
    a914:	ebfff865 	bl	8ab0 <bcm2835_peri_write_nb>
    a918:	e55b3015 	ldrb	r3, [fp, #-21]	; 0xffffffeb
    a91c:	e51b000c 	ldr	r0, [fp, #-12]
    a920:	e1a01003 	mov	r1, r3
    a924:	ebfff861 	bl	8ab0 <bcm2835_peri_write_nb>
    a928:	e51b301c 	ldr	r3, [fp, #-28]	; 0xffffffe4
    a92c:	e5d33000 	ldrb	r3, [r3]
    a930:	e51b000c 	ldr	r0, [fp, #-12]
    a934:	e1a01003 	mov	r1, r3
    a938:	ebfff85c 	bl	8ab0 <bcm2835_peri_write_nb>
    a93c:	e51b0014 	ldr	r0, [fp, #-20]	; 0xffffffec
    a940:	e3a01002 	mov	r1, #2
    a944:	e3a02002 	mov	r2, #2
    a948:	ebfff863 	bl	8adc <bcm2835_peri_set_bits>
    a94c:	e24bd004 	sub	sp, fp, #4
    a950:	e8bd8800 	pop	{fp, pc}
    a954:	0000b024 	.word	0x0000b024
    a958:	00000302 	.word	0x00000302
    a95c:	00008080 	.word	0x00008080

0000a960 <bcm2835_i2c_read>:
    a960:	e92d4800 	push	{fp, lr}
    a964:	e28db004 	add	fp, sp, #4
    a968:	e24dd018 	sub	sp, sp, #24
    a96c:	e1a03000 	mov	r3, r0
    a970:	e50b101c 	str	r1, [fp, #-28]	; 0xffffffe4
    a974:	e54b3015 	strb	r3, [fp, #-21]	; 0xffffffeb
    a978:	e59f3158 	ldr	r3, [pc, #344]	; aad8 <bcm2835_i2c_read+0x178>
    a97c:	e5933000 	ldr	r3, [r3]
    a980:	e2833008 	add	r3, r3, #8
    a984:	e50b3008 	str	r3, [fp, #-8]
    a988:	e59f3148 	ldr	r3, [pc, #328]	; aad8 <bcm2835_i2c_read+0x178>
    a98c:	e5933000 	ldr	r3, [r3]
    a990:	e2833010 	add	r3, r3, #16
    a994:	e50b300c 	str	r3, [fp, #-12]
    a998:	e59f3138 	ldr	r3, [pc, #312]	; aad8 <bcm2835_i2c_read+0x178>
    a99c:	e5933000 	ldr	r3, [r3]
    a9a0:	e2833004 	add	r3, r3, #4
    a9a4:	e50b3010 	str	r3, [fp, #-16]
    a9a8:	e59f3128 	ldr	r3, [pc, #296]	; aad8 <bcm2835_i2c_read+0x178>
    a9ac:	e5933000 	ldr	r3, [r3]
    a9b0:	e50b3014 	str	r3, [fp, #-20]	; 0xffffffec
    a9b4:	e51b0014 	ldr	r0, [fp, #-20]	; 0xffffffec
    a9b8:	e3a01020 	mov	r1, #32
    a9bc:	e3a02020 	mov	r2, #32
    a9c0:	ebfff845 	bl	8adc <bcm2835_peri_set_bits>
    a9c4:	e51b0010 	ldr	r0, [fp, #-16]
    a9c8:	e59f110c 	ldr	r1, [pc, #268]	; aadc <bcm2835_i2c_read+0x17c>
    a9cc:	ebfff837 	bl	8ab0 <bcm2835_peri_write_nb>
    a9d0:	e51b0008 	ldr	r0, [fp, #-8]
    a9d4:	e3a01001 	mov	r1, #1
    a9d8:	ebfff834 	bl	8ab0 <bcm2835_peri_write_nb>
    a9dc:	e51b0014 	ldr	r0, [fp, #-20]	; 0xffffffec
    a9e0:	e59f10f8 	ldr	r1, [pc, #248]	; aae0 <bcm2835_i2c_read+0x180>
    a9e4:	ebfff831 	bl	8ab0 <bcm2835_peri_write_nb>
    a9e8:	e55b3015 	ldrb	r3, [fp, #-21]	; 0xffffffeb
    a9ec:	e51b000c 	ldr	r0, [fp, #-12]
    a9f0:	e1a01003 	mov	r1, r3
    a9f4:	ebfff82d 	bl	8ab0 <bcm2835_peri_write_nb>
    a9f8:	ea000006 	b	aa18 <bcm2835_i2c_read+0xb8>
    a9fc:	e51b0010 	ldr	r0, [fp, #-16]
    aa00:	ebfff7e6 	bl	89a0 <bcm2835_peri_read>
    aa04:	e1a03000 	mov	r3, r0
    aa08:	e2033002 	and	r3, r3, #2
    aa0c:	e3530000 	cmp	r3, #0
    aa10:	0a000000 	beq	aa18 <bcm2835_i2c_read+0xb8>
    aa14:	ea000005 	b	aa30 <bcm2835_i2c_read+0xd0>
    aa18:	e51b0010 	ldr	r0, [fp, #-16]
    aa1c:	ebfff80b 	bl	8a50 <bcm2835_peri_read_nb>
    aa20:	e1a03000 	mov	r3, r0
    aa24:	e2033001 	and	r3, r3, #1
    aa28:	e3530000 	cmp	r3, #0
    aa2c:	0afffff2 	beq	a9fc <bcm2835_i2c_read+0x9c>
    aa30:	e51b0008 	ldr	r0, [fp, #-8]
    aa34:	e3a01001 	mov	r1, #1
    aa38:	ebfff81c 	bl	8ab0 <bcm2835_peri_write_nb>
    aa3c:	e51b0014 	ldr	r0, [fp, #-20]	; 0xffffffec
    aa40:	e59f109c 	ldr	r1, [pc, #156]	; aae4 <bcm2835_i2c_read+0x184>
    aa44:	ebfff819 	bl	8ab0 <bcm2835_peri_write_nb>
    aa48:	e59f3098 	ldr	r3, [pc, #152]	; aae8 <bcm2835_i2c_read+0x188>
    aa4c:	e5932000 	ldr	r2, [r3]
    aa50:	e1a03002 	mov	r3, r2
    aa54:	e1a03083 	lsl	r3, r3, #1
    aa58:	e0833002 	add	r3, r3, r2
    aa5c:	e1a02003 	mov	r2, r3
    aa60:	e1a03fc2 	asr	r3, r2, #31
    aa64:	e1a00002 	mov	r0, r2
    aa68:	e1a01003 	mov	r1, r3
    aa6c:	ebfff7ec 	bl	8a24 <bcm2835_delayMicroseconds>
    aa70:	ea00000c 	b	aaa8 <bcm2835_i2c_read+0x148>
    aa74:	ea000005 	b	aa90 <bcm2835_i2c_read+0x130>
    aa78:	e51b000c 	ldr	r0, [fp, #-12]
    aa7c:	ebfff7f3 	bl	8a50 <bcm2835_peri_read_nb>
    aa80:	e1a03000 	mov	r3, r0
    aa84:	e6ef2073 	uxtb	r2, r3
    aa88:	e51b301c 	ldr	r3, [fp, #-28]	; 0xffffffe4
    aa8c:	e5c32000 	strb	r2, [r3]
    aa90:	e51b0010 	ldr	r0, [fp, #-16]
    aa94:	ebfff7ed 	bl	8a50 <bcm2835_peri_read_nb>
    aa98:	e1a03000 	mov	r3, r0
    aa9c:	e2033020 	and	r3, r3, #32
    aaa0:	e3530000 	cmp	r3, #0
    aaa4:	1afffff3 	bne	aa78 <bcm2835_i2c_read+0x118>
    aaa8:	e51b0010 	ldr	r0, [fp, #-16]
    aaac:	ebfff7e7 	bl	8a50 <bcm2835_peri_read_nb>
    aab0:	e1a03000 	mov	r3, r0
    aab4:	e2033002 	and	r3, r3, #2
    aab8:	e3530000 	cmp	r3, #0
    aabc:	0affffec 	beq	aa74 <bcm2835_i2c_read+0x114>
    aac0:	e51b0014 	ldr	r0, [fp, #-20]	; 0xffffffec
    aac4:	e3a01002 	mov	r1, #2
    aac8:	e3a02002 	mov	r2, #2
    aacc:	ebfff802 	bl	8adc <bcm2835_peri_set_bits>
    aad0:	e24bd004 	sub	sp, fp, #4
    aad4:	e8bd8800 	pop	{fp, pc}
    aad8:	0000b024 	.word	0x0000b024
    aadc:	00000302 	.word	0x00000302
    aae0:	00008080 	.word	0x00008080
    aae4:	00008081 	.word	0x00008081
    aae8:	0000b030 	.word	0x0000b030
